

Microchip MPLAB XC8 Assembler V2.40 build 20220703182018 
                                                                                               Thu Mar 09 10:32:24 2023

Microchip MPLAB XC8 C Compiler v2.40 (Free license) build 20220703182018 Og1 
     1                           	processor	18F67K40
     2                           	fnconf	rparam,??,?,0
     3                           	pagewidth 120
     4                           	opt	flic
     5                           	psect	idataCOMRAM,global,class=CODE,delta=1,noexec
     6                           	psect	idataBANK0,global,class=CODE,delta=1,noexec
     7                           	psect	smallconst,global,reloc=2,class=SMALLCONST,delta=1,noexec
     8                           	psect	cinit,global,reloc=2,class=CODE,delta=1
     9                           	psect	bssCOMRAM,global,class=COMRAM,space=1,delta=1,lowdata,noexec
    10                           	psect	dataCOMRAM,global,class=COMRAM,space=1,delta=1,lowdata,noexec
    11                           	psect	bssBANK0,global,class=BANK0,space=1,delta=1,lowdata,noexec
    12                           	psect	dataBANK0,global,class=BANK0,space=1,delta=1,lowdata,noexec
    13                           	psect	bssBANK1,global,class=BANK1,space=1,delta=1,lowdata,noexec
    14                           	psect	cstackBANK0,global,class=BANK0,space=1,delta=1,lowdata,noexec
    15                           	psect	cstackCOMRAM,global,class=COMRAM,space=1,delta=1,lowdata,noexec
    16                           	psect	text0,global,reloc=2,class=CODE,delta=1
    17                           	psect	text1,global,reloc=2,class=CODE,delta=1,group=3
    18                           	psect	text2,global,reloc=2,class=CODE,delta=1,group=1
    19                           	psect	text3,global,reloc=2,class=CODE,delta=1,group=1
    20                           	psect	text4,global,reloc=2,class=CODE,delta=1,group=1
    21                           	psect	text5,global,reloc=2,class=CODE,delta=1,group=1
    22                           	psect	text6,global,reloc=2,class=CODE,delta=1,group=3
    23                           	psect	text7,global,reloc=2,class=CODE,delta=1,group=3
    24                           	psect	text8,global,reloc=2,class=CODE,delta=1,group=3
    25                           	psect	text9,global,reloc=2,class=CODE,delta=1,group=3
    26                           	psect	text10,global,reloc=2,class=CODE,delta=1,group=2
    27                           	psect	text11,global,reloc=2,class=CODE,delta=1,group=2
    28                           	psect	text12,global,reloc=2,class=CODE,delta=1
    29                           	psect	text13,global,reloc=2,class=CODE,delta=1
    30                           	psect	text14,global,reloc=2,class=CODE,delta=1
    31                           	psect	text15,global,reloc=2,class=CODE,delta=1
    32                           	psect	text16,global,reloc=2,class=CODE,delta=1
    33                           	psect	text17,global,reloc=2,class=CODE,delta=1
    34                           	psect	text18,global,reloc=2,class=CODE,delta=1
    35                           	psect	text19,global,reloc=2,class=CODE,delta=1
    36                           	psect	text20,global,reloc=2,class=CODE,delta=1
    37                           	psect	text21,global,reloc=2,class=CODE,delta=1
    38                           	psect	text22,global,reloc=2,class=CODE,delta=1
    39                           	psect	text23,global,reloc=2,class=CODE,delta=1
    40                           	psect	text24,global,reloc=2,class=CODE,delta=1
    41                           	psect	text25,global,reloc=2,class=CODE,delta=1
    42                           	psect	text26,global,reloc=2,class=CODE,delta=1
    43                           	psect	text27,global,reloc=2,class=CODE,delta=1
    44                           	psect	text28,global,reloc=2,class=CODE,delta=1
    45                           	psect	text29,global,reloc=2,class=CODE,delta=1
    46                           	psect	text30,global,reloc=2,class=CODE,delta=1
    47                           	psect	text31,global,reloc=2,class=CODE,delta=1
    48                           	psect	text32,global,reloc=2,class=CODE,delta=1,group=2
    49                           	psect	text33,global,reloc=2,class=CODE,delta=1,group=2
    50                           	psect	text34,global,reloc=2,class=CODE,delta=1,group=2
    51                           	psect	text35,global,reloc=2,class=CODE,delta=1,group=2
    52                           	psect	text36,global,reloc=2,class=CODE,delta=1,group=2
    53                           	psect	text37,global,reloc=2,class=CODE,delta=1,group=2
    54                           	psect	text38,global,reloc=2,class=CODE,delta=1,group=2
    55                           	psect	intcode,global,reloc=2,class=CODE,delta=1
    56                           	psect	intsave_regs,global,class=BIGRAM,space=1,delta=1,noexec
    57                           	psect	rparam,global,class=COMRAM,space=1,delta=1,noexec
    58                           	psect	temp,global,ovrld,common,class=COMRAM,space=1,delta=1
    59                           	psect	idloc,global,abs,ovrld,class=IDLOC,space=5,delta=1,noexec
    60                           	psect	config,global,abs,ovrld,class=CONFIG,space=4,delta=1,noexec
    61   000000                     
    62                           ; Generated 06/04/2022 GMT
    63                           ; 
    64                           ; Copyright © 2022, Microchip Technology Inc. and its subsidiaries ("Microchip")
    65                           ; All rights reserved.
    66                           ; 
    67                           ; This software is developed by Microchip Technology Inc. and its subsidiaries ("Microch
      +                          ip").
    68                           ; 
    69                           ; Redistribution and use in source and binary forms, with or without modification, are
    70                           ; permitted provided that the following conditions are met:
    71                           ; 
    72                           ;     1. Redistributions of source code must retain the above copyright notice, this lis
      +                          t of
    73                           ;        conditions and the following disclaimer.
    74                           ; 
    75                           ;     2. Redistributions in binary form must reproduce the above copyright notice, this 
      +                          list
    76                           ;        of conditions and the following disclaimer in the documentation and/or other
    77                           ;        materials provided with the distribution. Publication is not required when
    78                           ;        this file is used in an embedded application.
    79                           ; 
    80                           ;     3. Microchip's name may not be used to endorse or promote products derived from th
      +                          is
    81                           ;        software without specific prior written permission.
    82                           ; 
    83                           ; THIS SOFTWARE IS PROVIDED BY MICROCHIP "AS IS" AND ANY EXPRESS OR IMPLIED WARRANTIES,
    84                           ; INCLUDING, BUT NOT LIMITED TO, THE IMPLIED WARRANTIES OF MERCHANTABILITY AND FITNESS F
      +                          OR
    85                           ; PURPOSE ARE DISCLAIMED.  IN NO EVENT SHALL MICROCHIP BE LIABLE FOR ANY DIRECT, INDIREC
      +                          T,
    86                           ; INCIDENTAL, SPECIAL, EXEMPLARY, OR CONSEQUENTIAL DAMAGES (INCLUDING BUT NOT LIMITED TO
    87                           ; PROCUREMENT OF SUBSTITUTE GOODS OR SERVICES; LOSS OF USE, DATA OR PROFITS; OR BUSINESS
    88                           ; INTERRUPTION) HOWSOEVER CAUSED AND ON ANY THEORY OF LIABILITY, WHETHER IN CONTRACT, ST
      +                          RICT
    89                           ; LIABILITY, OR TORT (INCLUDING NEGLIGENCE OR OTHERWISE) ARISING IN ANY WAY OUT OF THE U
      +                          SE OF
    90                           ; THIS SOFTWARE, EVEN IF ADVISED OF THE POSSIBILITY OF SUCH DAMAGE.
    91                           ; 
    92                           ; 
    93                           ; Code-generator required, PIC18F67K40 Definitions
    94                           ; 
    95                           ; SFR Addresses
    96   000000                     
    97                           	psect	idataCOMRAM
    98   0039E2                     __pidataCOMRAM:
    99                           	callstack 0
   100                           
   101                           ;initializer for _DataFlag
   102   0039E2  01                 	db	1
   103                           
   104                           	psect	idataBANK0
   105   0039DC                     __pidataBANK0:
   106                           	callstack 0
   107                           
   108                           ;initializer for _high_threshold
   109   0039DC  03E8               	dw	1000
   110   000000                     _TX4REG	set	3812
   111   000000                     _RC4STAbits	set	3815
   112   000000                     _SP4BRGH	set	3814
   113   000000                     _SSP2CON2bits	set	3802
   114   000000                     _RX4PPS	set	3605
   115   000000                     _SSP2CLKPPS	set	3612
   116   000000                     _SSP2DATPPS	set	3613
   117   000000                     _ANSELDbits	set	3751
   118   000000                     _SSP2ADD	set	3798
   119   000000                     _SSP2CON1bits	set	3801
   120   000000                     _LATAbits	set	3961
   121   000000                     _LATFbits	set	3966
   122   000000                     _LATGbits	set	3967
   123   000000                     _TRISAbits	set	3969
   124   000000                     _TRISGbits	set	3975
   125   000000                     _TRISDbits	set	3972
   126   000000                     _TRISFbits	set	3974
   127   000000                     _LATDbits	set	3964
   128   000000                     _RC4REG	set	3811
   129   000000                     _SP4BRGL	set	3813
   130   000000                     _TX4STAbits	set	3816
   131   000000                     _BAUD4CONbits	set	3817
   132   000000                     _SSP2CON2	set	3802
   133   000000                     _SSP2STAT	set	3800
   134   000000                     _SSP2BUF	set	3797
   135   000000                     _PIE4bits	set	3629
   136   000000                     _PIR4bits	set	3639
   137   000000                     _RC0PPS	set	3682
   138   000000                     _RD5PPS	set	3695
   139   000000                     _RD6PPS	set	3696
   140                           
   141                           	psect	smallconst
   142   000E00                     __psmallconst:
   143                           	callstack 0
   144   000E00  00                 	db	0
   145   000E01                     STR_1:
   146   000E01  72                 	db	114	;'r'
   147   000E02  65                 	db	101	;'e'
   148   000E03  64                 	db	100	;'d'
   149   000E04  3D                 	db	61	;'='
   150   000E05  25                 	db	37
   151   000E06  64                 	db	100	;'d'
   152   000E07  20                 	db	32
   153   000E08  67                 	db	103	;'g'
   154   000E09  72                 	db	114	;'r'
   155   000E0A  65                 	db	101	;'e'
   156   000E0B  65                 	db	101	;'e'
   157   000E0C  6E                 	db	110	;'n'
   158   000E0D  3D                 	db	61	;'='
   159   000E0E  25                 	db	37
   160   000E0F  64                 	db	100	;'d'
   161   000E10  20                 	db	32
   162   000E11  62                 	db	98	;'b'
   163   000E12  6C                 	db	108	;'l'
   164   000E13  75                 	db	117	;'u'
   165   000E14  65                 	db	101	;'e'
   166   000E15  3D                 	db	61	;'='
   167   000E16  25                 	db	37
   168   000E17  64                 	db	100	;'d'
   169   000E18  20                 	db	32
   170   000E19  6C                 	db	108	;'l'
   171   000E1A  75                 	db	117	;'u'
   172   000E1B  6D                 	db	109	;'m'
   173   000E1C  3D                 	db	61	;'='
   174   000E1D  25                 	db	37
   175   000E1E  64                 	db	100	;'d'
   176   000E1F  20                 	db	32
   177   000E20  63                 	db	99	;'c'
   178   000E21  6F                 	db	111	;'o'
   179   000E22  6C                 	db	108	;'l'
   180   000E23  6F                 	db	111	;'o'
   181   000E24  75                 	db	117	;'u'
   182   000E25  72                 	db	114	;'r'
   183   000E26  3D                 	db	61	;'='
   184   000E27  25                 	db	37
   185   000E28  64                 	db	100	;'d'
   186   000E29  20                 	db	32
   187   000E2A  0D                 	db	13
   188   000E2B  0A                 	db	10
   189   000E2C  00                 	db	0
   190   000E2D                     STR_2:
   191   000E2D  72                 	db	114	;'r'
   192   000E2E  65                 	db	101	;'e'
   193   000E2F  64                 	db	100	;'d'
   194   000E30  3D                 	db	61	;'='
   195   000E31  25                 	db	37
   196   000E32  64                 	db	100	;'d'
   197   000E33  20                 	db	32
   198   000E34  67                 	db	103	;'g'
   199   000E35  72                 	db	114	;'r'
   200   000E36  65                 	db	101	;'e'
   201   000E37  65                 	db	101	;'e'
   202   000E38  6E                 	db	110	;'n'
   203   000E39  3D                 	db	61	;'='
   204   000E3A  25                 	db	37
   205   000E3B  64                 	db	100	;'d'
   206   000E3C  20                 	db	32
   207   000E3D  62                 	db	98	;'b'
   208   000E3E  6C                 	db	108	;'l'
   209   000E3F  75                 	db	117	;'u'
   210   000E40  65                 	db	101	;'e'
   211   000E41  3D                 	db	61	;'='
   212   000E42  25                 	db	37
   213   000E43  64                 	db	100	;'d'
   214   000E44  20                 	db	32
   215   000E45  6C                 	db	108	;'l'
   216   000E46  75                 	db	117	;'u'
   217   000E47  6D                 	db	109	;'m'
   218   000E48  3D                 	db	61	;'='
   219   000E49  25                 	db	37
   220   000E4A  64                 	db	100	;'d'
   221   000E4B  20                 	db	32
   222   000E4C  0D                 	db	13
   223   000E4D  0A                 	db	10
   224   000E4E  00                 	db	0
   225   000E4F  00                 	db	0	; dummy byte at the end
   226   000000                     
   227                           ; #config settings
   228                           
   229                           	psect	cinit
   230   0034E0                     __pcinit:
   231                           	callstack 0
   232   0034E0                     start_initialization:
   233                           	callstack 0
   234   0034E0                     __initialization:
   235                           	callstack 0
   236                           
   237                           ; Initialize objects allocated to BANK0 (2 bytes)
   238                           ; load TBLPTR registers with __pidataBANK0
   239   0034E0  0EDC               	movlw	low __pidataBANK0
   240   0034E2  6EF6               	movwf	tblptrl,c
   241   0034E4  0E39               	movlw	high __pidataBANK0
   242   0034E6  6EF7               	movwf	tblptrh,c
   243   0034E8  0E00               	movlw	low (__pidataBANK0 shr (0+16))
   244   0034EA  6EF8               	movwf	tblptru,c
   245   0034EC  0009               	tblrd		*+	;fetch initializer
   246   0034EE  CFF5 F0F5          	movff	tablat,__pdataBANK0
   247   0034F2  0009               	tblrd		*+	;fetch initializer
   248   0034F4  CFF5 F0F6          	movff	tablat,__pdataBANK0+1
   249                           
   250                           ; Initialize objects allocated to COMRAM (1 bytes)
   251                           ; load TBLPTR registers with __pidataCOMRAM
   252   0034F8  0EE2               	movlw	low __pidataCOMRAM
   253   0034FA  6EF6               	movwf	tblptrl,c
   254   0034FC  0E39               	movlw	high __pidataCOMRAM
   255   0034FE  6EF7               	movwf	tblptrh,c
   256   003500  0E00               	movlw	low (__pidataCOMRAM shr (0+16))
   257   003502  6EF8               	movwf	tblptru,c
   258   003504  0009               	tblrd		*+	;fetch initializer
   259   003506  CFF5 F05E          	movff	tablat,__pdataCOMRAM
   260                           
   261                           ; Clear objects allocated to BANK1 (136 bytes)
   262   00350A  EE01  F000         	lfsr	0,__pbssBANK1
   263   00350E  0E88               	movlw	136
   264   003510                     clear_0:
   265   003510  6AEE               	clrf	postinc0,c
   266   003512  06E8               	decf	wreg,f,c
   267   003514  E1FD               	bnz	clear_0
   268                           
   269                           ; Clear objects allocated to BANK0 (15 bytes)
   270   003516  EE00  F0E6         	lfsr	0,__pbssBANK0
   271   00351A  0E0F               	movlw	15
   272   00351C                     clear_1:
   273   00351C  6AEE               	clrf	postinc0,c
   274   00351E  06E8               	decf	wreg,f,c
   275   003520  E1FD               	bnz	clear_1
   276                           
   277                           ; Clear objects allocated to COMRAM (5 bytes)
   278   003522  6A5D               	clrf	(__pbssCOMRAM+4)& (0+255),c
   279   003524  6A5C               	clrf	(__pbssCOMRAM+3)& (0+255),c
   280   003526  6A5B               	clrf	(__pbssCOMRAM+2)& (0+255),c
   281   003528  6A5A               	clrf	(__pbssCOMRAM+1)& (0+255),c
   282   00352A  6A59               	clrf	__pbssCOMRAM& (0+255),c
   283   00352C                     end_of_initialization:
   284                           	callstack 0
   285   00352C                     __end_of__initialization:
   286                           	callstack 0
   287   00352C  905F               	bcf	int$flags,0,c	;clear compiler interrupt flag (level 1)
   288   00352E  925F               	bcf	int$flags,1,c	;clear compiler interrupt flag (level 2)
   289   003530  0E00               	movlw	low (__Lsmallconst shr (0+16))
   290   003532  6EF8               	movwf	tblptru,c
   291   003534  0E0E               	movlw	high __Lsmallconst
   292   003536  6EF7               	movwf	tblptrh,c
   293   003538  0100               	movlb	0
   294   00353A  EFFC  F018         	goto	_main	;jump to C main() function
   295                           
   296                           	psect	bssCOMRAM
   297   000059                     __pbssCOMRAM:
   298                           	callstack 0
   299   000059                     _TxBufReadCnt:
   300                           	callstack 0
   301   000059                     	ds	1
   302   00005A                     _TxBufWriteCnt:
   303                           	callstack 0
   304   00005A                     	ds	1
   305   00005B                     _RxBufReadCnt:
   306                           	callstack 0
   307   00005B                     	ds	1
   308   00005C                     _RxBufWriteCnt:
   309                           	callstack 0
   310   00005C                     	ds	1
   311   00005D                     _pointer:
   312                           	callstack 0
   313   00005D                     	ds	1
   314                           
   315                           	psect	dataCOMRAM
   316   00005E                     __pdataCOMRAM:
   317                           	callstack 0
   318   00005E                     _DataFlag:
   319                           	callstack 0
   320   00005E                     	ds	1
   321                           
   322                           	psect	bssBANK0
   323   0000E6                     __pbssBANK0:
   324                           	callstack 0
   325   0000E6                     _width:
   326                           	callstack 0
   327   0000E6                     	ds	2
   328   0000E8                     _prec:
   329                           	callstack 0
   330   0000E8                     	ds	2
   331   0000EA                     _low_threshold:
   332                           	callstack 0
   333   0000EA                     	ds	2
   334   0000EC                     _flags:
   335                           	callstack 0
   336   0000EC                     	ds	1
   337   0000ED                     _vals:
   338                           	callstack 0
   339   0000ED                     	ds	8
   340                           
   341                           	psect	dataBANK0
   342   0000F5                     __pdataBANK0:
   343                           	callstack 0
   344   0000F5                     _high_threshold:
   345                           	callstack 0
   346   0000F5                     	ds	2
   347                           
   348                           	psect	bssBANK1
   349   000100                     __pbssBANK1:
   350                           	callstack 0
   351   000100                     _EUSART4TXbuf:
   352                           	callstack 0
   353   000100                     	ds	60
   354   00013C                     _EUSART4RXbuf:
   355                           	callstack 0
   356   00013C                     	ds	20
   357   000150                     	ds	12
   358   00015C                     _dbuf:
   359                           	callstack 0
   360   00015C                     	ds	32
   361   00017C                     _rel:
   362                           	callstack 0
   363   00017C                     	ds	12
   364                           
   365                           	psect	cstackBANK0
   366   000060                     __pcstackBANK0:
   367                           	callstack 0
   368   000060                     ?_sprintf:
   369                           	callstack 0
   370   000060                     sprintf@s:
   371                           	callstack 0
   372   000060                     _Colour_decider$1740:
   373                           	callstack 0
   374                           
   375                           ; 4 bytes @ 0x0
   376   000060                     	ds	2
   377   000062                     sprintf@fmt:
   378                           	callstack 0
   379                           
   380                           ; 2 bytes @ 0x2
   381   000062                     	ds	2
   382   000064                     Colour_decider@Cmax_i:
   383                           	callstack 0
   384                           
   385                           ; 2 bytes @ 0x4
   386   000064                     	ds	2
   387   000066                     Colour_decider@RGB_col:
   388                           	callstack 0
   389                           
   390                           ; 12 bytes @ 0x6
   391   000066                     	ds	8
   392   00006E                     sprintf@ap:
   393                           	callstack 0
   394                           
   395                           ; 2 bytes @ 0xE
   396   00006E                     	ds	2
   397   000070                     sprintf@f:
   398                           	callstack 0
   399                           
   400                           ; 11 bytes @ 0x10
   401   000070                     	ds	2
   402   000072                     Colour_decider@Cmax:
   403                           	callstack 0
   404                           
   405                           ; 4 bytes @ 0x12
   406   000072                     	ds	4
   407   000076                     Colour_decider@Cmin:
   408                           	callstack 0
   409                           
   410                           ; 4 bytes @ 0x16
   411   000076                     	ds	4
   412   00007A                     Colour_decider@i:
   413                           	callstack 0
   414                           
   415                           ; 2 bytes @ 0x1A
   416   00007A                     	ds	2
   417   00007C                     Colour_decider@Hue:
   418                           	callstack 0
   419                           
   420                           ; 4 bytes @ 0x1C
   421   00007C                     	ds	4
   422   000080                     main@buf:
   423                           	callstack 0
   424                           
   425                           ; 100 bytes @ 0x20
   426   000080                     	ds	100
   427   0000E4                     main@colour:
   428                           	callstack 0
   429                           
   430                           ; 2 bytes @ 0x84
   431   0000E4                     	ds	2
   432                           
   433                           	psect	cstackCOMRAM
   434   000001                     __pcstackCOMRAM:
   435                           	callstack 0
   436   000001                     ??_I2C_2_Master_Idle:
   437   000001                     ?___fladd:
   438                           	callstack 0
   439   000001                     ?___xxtofl:
   440                           	callstack 0
   441   000001                     ?___aodiv:
   442                           	callstack 0
   443   000001                     ?___aomod:
   444                           	callstack 0
   445   000001                     sendCharSerial4@charToSend:
   446                           	callstack 0
   447   000001                     fputc@c:
   448                           	callstack 0
   449   000001                     ___flge@ff1:
   450                           	callstack 0
   451   000001                     ___fladd@b:
   452                           	callstack 0
   453   000001                     ___xxtofl@val:
   454                           	callstack 0
   455   000001                     ___aodiv@dividend:
   456                           	callstack 0
   457   000001                     ___aomod@dividend:
   458                           	callstack 0
   459                           
   460                           ; 8 bytes @ 0x0
   461   000001                     	ds	1
   462   000002                     ??_I2C_2_Master_Read:
   463   000002                     I2C_2_Master_Write@data_byte:
   464                           	callstack 0
   465   000002                     sendStringSerial4@string:
   466                           	callstack 0
   467                           
   468                           ; 2 bytes @ 0x1
   469   000002                     	ds	1
   470   000003                     color_writetoaddr@value:
   471                           	callstack 0
   472   000003                     I2C_2_Master_Read@ack:
   473                           	callstack 0
   474   000003                     fputc@fp:
   475                           	callstack 0
   476                           
   477                           ; 2 bytes @ 0x2
   478   000003                     	ds	1
   479   000004                     color_writetoaddr@address:
   480                           	callstack 0
   481   000004                     I2C_2_Master_Read@tmp:
   482                           	callstack 0
   483                           
   484                           ; 1 bytes @ 0x3
   485   000004                     	ds	1
   486   000005                     ??_fputc:
   487   000005                     ??_color_click_init:
   488   000005                     ??___xxtofl:
   489   000005                     ?_color_read_lum:
   490                           	callstack 0
   491   000005                     ?_color_read_Red:
   492                           	callstack 0
   493   000005                     ?_color_read_Green:
   494                           	callstack 0
   495   000005                     ?_color_read_Blue:
   496                           	callstack 0
   497   000005                     ___flge@ff2:
   498                           	callstack 0
   499   000005                     ___fladd@a:
   500                           	callstack 0
   501                           
   502                           ; 4 bytes @ 0x4
   503   000005                     	ds	2
   504   000007                     ??_color_read_lum:
   505   000007                     ??_color_read_Red:
   506   000007                     ??_color_read_Green:
   507   000007                     ??_color_read_Blue:
   508                           
   509                           ; 1 bytes @ 0x6
   510   000007                     	ds	2
   511   000009                     ??___fladd:
   512   000009                     ??___flge:
   513   000009                     ___xxtofl@sign:
   514                           	callstack 0
   515   000009                     ___aodiv@divisor:
   516                           	callstack 0
   517   000009                     ___aomod@divisor:
   518                           	callstack 0
   519                           
   520                           ; 8 bytes @ 0x8
   521   000009                     	ds	1
   522   00000A                     ___xxtofl@exp:
   523                           	callstack 0
   524   00000A                     color_read_lum@tmp:
   525                           	callstack 0
   526   00000A                     color_read_Red@tmp:
   527                           	callstack 0
   528   00000A                     color_read_Green@tmp:
   529                           	callstack 0
   530   00000A                     color_read_Blue@tmp:
   531                           	callstack 0
   532   00000A                     fputs@s:
   533                           	callstack 0
   534                           
   535                           ; 2 bytes @ 0x9
   536   00000A                     	ds	1
   537   00000B                     ___xxtofl@arg:
   538                           	callstack 0
   539                           
   540                           ; 4 bytes @ 0xA
   541   00000B                     	ds	1
   542   00000C                     readColours@vals:
   543                           	callstack 0
   544   00000C                     fputs@fp:
   545                           	callstack 0
   546                           
   547                           ; 2 bytes @ 0xB
   548   00000C                     	ds	1
   549   00000D                     ___fladd@signs:
   550                           	callstack 0
   551                           
   552                           ; 1 bytes @ 0xC
   553   00000D                     	ds	1
   554   00000E                     ___fladd@aexp:
   555                           	callstack 0
   556   00000E                     fputs@c:
   557                           	callstack 0
   558                           
   559                           ; 1 bytes @ 0xD
   560   00000E                     	ds	1
   561   00000F                     ___fladd@bexp:
   562                           	callstack 0
   563   00000F                     fputs@i:
   564                           	callstack 0
   565                           
   566                           ; 2 bytes @ 0xE
   567   00000F                     	ds	1
   568   000010                     ___fladd@grs:
   569                           	callstack 0
   570                           
   571                           ; 1 bytes @ 0xF
   572   000010                     	ds	1
   573   000011                     ?___flsub:
   574                           	callstack 0
   575   000011                     ___aodiv@counter:
   576                           	callstack 0
   577   000011                     ___aomod@counter:
   578                           	callstack 0
   579   000011                     pad@fp:
   580                           	callstack 0
   581   000011                     ___flsub@b:
   582                           	callstack 0
   583                           
   584                           ; 4 bytes @ 0x10
   585   000011                     	ds	1
   586   000012                     ___aodiv@sign:
   587                           	callstack 0
   588   000012                     ___aomod@sign:
   589                           	callstack 0
   590                           
   591                           ; 1 bytes @ 0x11
   592   000012                     	ds	1
   593   000013                     ?_abs:
   594                           	callstack 0
   595   000013                     pad@buf:
   596                           	callstack 0
   597   000013                     abs@a:
   598                           	callstack 0
   599   000013                     ___aodiv@quotient:
   600                           	callstack 0
   601                           
   602                           ; 8 bytes @ 0x12
   603   000013                     	ds	2
   604   000015                     ??_abs:
   605   000015                     pad@p:
   606                           	callstack 0
   607   000015                     ___flsub@a:
   608                           	callstack 0
   609                           
   610                           ; 4 bytes @ 0x14
   611   000015                     	ds	2
   612   000017                     ??_pad:
   613                           
   614                           ; 1 bytes @ 0x16
   615   000017                     	ds	1
   616   000018                     pad@i:
   617                           	callstack 0
   618                           
   619                           ; 2 bytes @ 0x17
   620   000018                     	ds	1
   621   000019                     ?___fldiv:
   622                           	callstack 0
   623   000019                     ___fleq@ff1:
   624                           	callstack 0
   625   000019                     ___fldiv@b:
   626                           	callstack 0
   627                           
   628                           ; 4 bytes @ 0x18
   629   000019                     	ds	1
   630   00001A                     pad@w:
   631                           	callstack 0
   632                           
   633                           ; 2 bytes @ 0x19
   634   00001A                     	ds	2
   635   00001C                     dtoa@fp:
   636                           	callstack 0
   637                           
   638                           ; 2 bytes @ 0x1B
   639   00001C                     	ds	1
   640   00001D                     ___fleq@ff2:
   641                           	callstack 0
   642   00001D                     ___fldiv@a:
   643                           	callstack 0
   644                           
   645                           ; 4 bytes @ 0x1C
   646   00001D                     	ds	1
   647   00001E                     dtoa@d:
   648                           	callstack 0
   649                           
   650                           ; 8 bytes @ 0x1D
   651   00001E                     	ds	3
   652   000021                     ??___fldiv:
   653   000021                     ??___fleq:
   654                           
   655                           ; 1 bytes @ 0x20
   656   000021                     	ds	4
   657   000025                     ___fldiv@rem:
   658                           	callstack 0
   659                           
   660                           ; 4 bytes @ 0x24
   661   000025                     	ds	1
   662   000026                     ??_dtoa:
   663                           
   664                           ; 1 bytes @ 0x25
   665   000026                     	ds	3
   666   000029                     ___fldiv@sign:
   667                           	callstack 0
   668                           
   669                           ; 1 bytes @ 0x28
   670   000029                     	ds	1
   671   00002A                     ___fldiv@new_exp:
   672                           	callstack 0
   673                           
   674                           ; 2 bytes @ 0x29
   675   00002A                     	ds	2
   676   00002C                     ___fldiv@grs:
   677                           	callstack 0
   678                           
   679                           ; 4 bytes @ 0x2B
   680   00002C                     	ds	2
   681   00002E                     _dtoa$1443:
   682                           	callstack 0
   683                           
   684                           ; 2 bytes @ 0x2D
   685   00002E                     	ds	2
   686   000030                     ___fldiv@bexp:
   687                           	callstack 0
   688   000030                     dtoa@p:
   689                           	callstack 0
   690                           
   691                           ; 2 bytes @ 0x2F
   692   000030                     	ds	1
   693   000031                     ___fldiv@aexp:
   694                           	callstack 0
   695                           
   696                           ; 1 bytes @ 0x30
   697   000031                     	ds	1
   698   000032                     ?___flmul:
   699                           	callstack 0
   700   000032                     colour_rel@vals:
   701                           	callstack 0
   702   000032                     dtoa@w:
   703                           	callstack 0
   704   000032                     ___flmul@b:
   705                           	callstack 0
   706                           
   707                           ; 4 bytes @ 0x31
   708   000032                     	ds	2
   709   000034                     colour_rel@rel:
   710                           	callstack 0
   711   000034                     dtoa@n:
   712                           	callstack 0
   713                           
   714                           ; 8 bytes @ 0x33
   715   000034                     	ds	2
   716   000036                     colour_rel@L:
   717                           	callstack 0
   718   000036                     ___flmul@a:
   719                           	callstack 0
   720                           
   721                           ; 4 bytes @ 0x35
   722   000036                     	ds	4
   723   00003A                     ??___flmul:
   724   00003A                     _colour_rel$1738:
   725                           	callstack 0
   726                           
   727                           ; 4 bytes @ 0x39
   728   00003A                     	ds	2
   729   00003C                     dtoa@i:
   730                           	callstack 0
   731                           
   732                           ; 2 bytes @ 0x3B
   733   00003C                     	ds	2
   734   00003E                     ___flmul@sign:
   735                           	callstack 0
   736   00003E                     dtoa@s:
   737                           	callstack 0
   738   00003E                     _colour_rel$1739:
   739                           	callstack 0
   740                           
   741                           ; 4 bytes @ 0x3D
   742   00003E                     	ds	1
   743   00003F                     vfpfcnvrt@fp:
   744                           	callstack 0
   745   00003F                     ___flmul@grs:
   746                           	callstack 0
   747                           
   748                           ; 4 bytes @ 0x3E
   749   00003F                     	ds	2
   750   000041                     vfpfcnvrt@fmt:
   751                           	callstack 0
   752                           
   753                           ; 2 bytes @ 0x40
   754   000041                     	ds	1
   755   000042                     colour_rel@R:
   756                           	callstack 0
   757                           
   758                           ; 4 bytes @ 0x41
   759   000042                     	ds	1
   760   000043                     ___flmul@aexp:
   761                           	callstack 0
   762   000043                     vfpfcnvrt@ap:
   763                           	callstack 0
   764                           
   765                           ; 2 bytes @ 0x42
   766   000043                     	ds	1
   767   000044                     ___flmul@bexp:
   768                           	callstack 0
   769                           
   770                           ; 1 bytes @ 0x43
   771   000044                     	ds	1
   772   000045                     ??_vfpfcnvrt:
   773   000045                     ___flmul@prod:
   774                           	callstack 0
   775                           
   776                           ; 4 bytes @ 0x44
   777   000045                     	ds	1
   778   000046                     colour_rel@G:
   779                           	callstack 0
   780                           
   781                           ; 4 bytes @ 0x45
   782   000046                     	ds	1
   783   000047                     vfpfcnvrt@convarg:
   784                           	callstack 0
   785                           
   786                           ; 8 bytes @ 0x46
   787   000047                     	ds	2
   788   000049                     ___flmul@temp:
   789                           	callstack 0
   790                           
   791                           ; 2 bytes @ 0x48
   792   000049                     	ds	1
   793   00004A                     colour_rel@B:
   794                           	callstack 0
   795                           
   796                           ; 4 bytes @ 0x49
   797   00004A                     	ds	1
   798   00004B                     ?_Colour_decider:
   799                           	callstack 0
   800   00004B                     Colour_decider@vals:
   801                           	callstack 0
   802                           
   803                           ; 2 bytes @ 0x4A
   804   00004B                     	ds	2
   805   00004D                     Colour_decider@rel:
   806                           	callstack 0
   807                           
   808                           ; 2 bytes @ 0x4C
   809   00004D                     	ds	2
   810   00004F                     ??_Colour_decider:
   811   00004F                     vfpfcnvrt@cp:
   812                           	callstack 0
   813                           
   814                           ; 2 bytes @ 0x4E
   815   00004F                     	ds	2
   816   000051                     ?_vfprintf:
   817                           	callstack 0
   818   000051                     vfprintf@fp:
   819                           	callstack 0
   820                           
   821                           ; 2 bytes @ 0x50
   822   000051                     	ds	2
   823   000053                     vfprintf@fmt:
   824                           	callstack 0
   825                           
   826                           ; 2 bytes @ 0x52
   827   000053                     	ds	2
   828   000055                     vfprintf@ap:
   829                           	callstack 0
   830                           
   831                           ; 2 bytes @ 0x54
   832   000055                     	ds	2
   833   000057                     vfprintf@cfmt:
   834                           	callstack 0
   835                           
   836                           ; 2 bytes @ 0x56
   837   000057                     	ds	2
   838   000059                     
   839                           ; 1 bytes @ 0x58
   840 ;;
   841 ;;Main: autosize = 0, tempsize = 0, incstack = 0, save=0
   842 ;;
   843 ;; *************** function _main *****************
   844 ;; Defined at:
   845 ;;		line 31 in file "main.c"
   846 ;; Parameters:    Size  Location     Type
   847 ;;		None
   848 ;; Auto vars:     Size  Location     Type
   849 ;;  colour          2  132[BANK0 ] int 
   850 ;;  buf           100   32[BANK0 ] unsigned char [100]
   851 ;; Return value:  Size  Location     Type
   852 ;;                  1    wreg      void 
   853 ;; Registers used:
   854 ;;		wreg, fsr1l, fsr1h, fsr2l, fsr2h, status,2, status,0, tblptrl, tblptrh, tblptru, prodl, prodh, cstack
   855 ;; Tracked objects:
   856 ;;		On entry : 0/0
   857 ;;		On exit  : 0/0
   858 ;;		Unchanged: 0/0
   859 ;; Data sizes:     COMRAM   BANK0   BANK1   BANK2   BANK3   BANK4   BANK5   BANK6   BANK7   BANK8   BANK9  BANK10  BANK1
      +1  BANK12  BANK13
   860 ;;      Params:         0       0       0       0       0       0       0       0       0       0       0       0       
      +0       0       0
   861 ;;      Locals:         0     102       0       0       0       0       0       0       0       0       0       0       
      +0       0       0
   862 ;;      Temps:          0       0       0       0       0       0       0       0       0       0       0       0       
      +0       0       0
   863 ;;      Totals:         0     102       0       0       0       0       0       0       0       0       0       0       
      +0       0       0
   864 ;;Total ram usage:      102 bytes
   865 ;; Hardware stack levels required when called: 9
   866 ;; This function calls:
   867 ;;		_Colour_decider
   868 ;;		_I2C_2_Master_Init
   869 ;;		_Interrupts_init
   870 ;;		_color_click_init
   871 ;;		_colour_rel
   872 ;;		_initUSART4
   873 ;;		_readColours
   874 ;;		_sendStringSerial4
   875 ;;		_sprintf
   876 ;; This function is called by:
   877 ;;		Startup code after reset
   878 ;; This function uses a non-reentrant model
   879 ;;
   880                           
   881                           	psect	text0
   882   0031F8                     __ptext0:
   883                           	callstack 0
   884   0031F8                     _main:
   885                           	callstack 22
   886   0031F8                     
   887                           ;main.c: 32:     initUSART4();
   888   0031F8  ECBE  F01C         	call	_initUSART4	;wreg free
   889   0031FC                     
   890                           ;main.c: 33:     Interrupts_init();
   891   0031FC  ECF0  F01C         	call	_Interrupts_init	;wreg free
   892   003200                     
   893                           ;main.c: 34:     color_click_init();
   894   003200  ECF7  F01A         	call	_color_click_init	;wreg free
   895   003204                     
   896                           ;main.c: 35:     I2C_2_Master_Init();
   897   003204  EC85  F01C         	call	_I2C_2_Master_Init	;wreg free
   898   003208                     
   899                           ;main.c: 36:     char buf[100];;main.c: 38:     LATGbits.LATG1=1;
   900   003208  827F               	bsf	127,1,c	;volatile
   901   00320A                     
   902                           ;main.c: 39:     LATAbits.LATA4=1;
   903   00320A  8879               	bsf	121,4,c	;volatile
   904   00320C                     
   905                           ;main.c: 40:     LATFbits.LATF7=1;
   906   00320C  8E7E               	bsf	126,7,c	;volatile
   907   00320E                     l3449:
   908                           
   909                           ;main.c: 46:     {;main.c: 50:     readColours(&vals);
   910   00320E  0EED               	movlw	low _vals
   911   003210  6E0C               	movwf	readColours@vals^0,c
   912   003212  0E00               	movlw	high _vals
   913   003214  6E0D               	movwf	(readColours@vals+1)^0,c
   914   003216  EC9F  F01A         	call	_readColours	;wreg free
   915   00321A                     
   916                           ;main.c: 53:     colour_rel(&vals, &rel);
   917   00321A  0EED               	movlw	low _vals
   918   00321C  6E32               	movwf	colour_rel@vals^0,c
   919   00321E  0E00               	movlw	high _vals
   920   003220  6E33               	movwf	(colour_rel@vals+1)^0,c
   921   003222  0E7C               	movlw	low _rel
   922   003224  6E34               	movwf	colour_rel@rel^0,c
   923   003226  0E01               	movlw	high _rel
   924   003228  6E35               	movwf	(colour_rel@rel+1)^0,c
   925   00322A  ECAD  F012         	call	_colour_rel	;wreg free
   926                           
   927                           ;main.c: 56:     if (vals.L>=2200){
   928   00322E  0100               	movlb	0	; () banked
   929   003230  BFF4               	btfsc	(_vals+7)& (0+255),7,b
   930   003232  EF24  F019         	goto	u3601
   931   003236  0E98               	movlw	152
   932   003238  5DF3               	subwf	(_vals+6)& (0+255),w,b
   933   00323A  0E08               	movlw	8
   934   00323C  59F4               	subwfb	(_vals+7)& (0+255),w,b
   935   00323E  A0D8               	btfss	status,0,c
   936   003240  EF24  F019         	goto	u3601
   937   003244  EF26  F019         	goto	u3600
   938   003248                     u3601:
   939   003248  EF55  F019         	goto	l3457
   940   00324C                     u3600:
   941   00324C                     
   942                           ; BSR set to: 0
   943                           ;main.c: 57:             int colour = Colour_decider(&vals, &rel);
   944   00324C  0EED               	movlw	low _vals
   945   00324E  6E4B               	movwf	Colour_decider@vals^0,c
   946   003250  0E00               	movlw	high _vals
   947   003252  6E4C               	movwf	(Colour_decider@vals+1)^0,c
   948   003254  0E7C               	movlw	low _rel
   949   003256  6E4D               	movwf	Colour_decider@rel^0,c
   950   003258  0E01               	movlw	high _rel
   951   00325A  6E4E               	movwf	(Colour_decider@rel+1)^0,c
   952   00325C  EC28  F007         	call	_Colour_decider	;wreg free
   953   003260  C04B  F0E4         	movff	?_Colour_decider,main@colour
   954   003264  C04C  F0E5         	movff	?_Colour_decider+1,main@colour+1
   955   003268                     
   956                           ;main.c: 58:             sprintf(buf,"red=%d green=%d blue=%d lum=%d colour=%d \r\n",val
      +                          s.R, vals.G,vals.B,vals.L,colour);
   957   003268  0E80               	movlw	low main@buf
   958   00326A  0100               	movlb	0	; () banked
   959   00326C  6F60               	movwf	sprintf@s& (0+255),b
   960   00326E  0E00               	movlw	high main@buf
   961   003270  6F61               	movwf	(sprintf@s+1)& (0+255),b
   962   003272  0E01               	movlw	low STR_1
   963   003274  6F62               	movwf	sprintf@fmt& (0+255),b
   964   003276  0E0E               	movlw	high STR_1
   965   003278  6F63               	movwf	(sprintf@fmt+1)& (0+255),b
   966   00327A  C0ED  F064         	movff	_vals,?_sprintf+4
   967   00327E  C0EE  F065         	movff	_vals+1,?_sprintf+5
   968   003282  C0EF  F066         	movff	_vals+2,?_sprintf+6
   969   003286  C0F0  F067         	movff	_vals+3,?_sprintf+7
   970   00328A  C0F1  F068         	movff	_vals+4,?_sprintf+8
   971   00328E  C0F2  F069         	movff	_vals+5,?_sprintf+9
   972   003292  C0F3  F06A         	movff	_vals+6,?_sprintf+10
   973   003296  C0F4  F06B         	movff	_vals+7,?_sprintf+11
   974   00329A  C0E4  F06C         	movff	main@colour,?_sprintf+12
   975   00329E  C0E5  F06D         	movff	main@colour+1,?_sprintf+13
   976   0032A2  ECCE  F01A         	call	_sprintf	;wreg free
   977                           
   978                           ;main.c: 59:     }else{
   979   0032A6  EF6F  F019         	goto	l3459
   980   0032AA                     l3457:
   981                           
   982                           ; BSR set to: 0
   983                           ;main.c: 60:             sprintf(buf,"red=%d green=%d blue=%d lum=%d \r\n",vals.R, vals.
      +                          G,vals.B,vals.L);
   984   0032AA  0E80               	movlw	low main@buf
   985   0032AC  6F60               	movwf	sprintf@s& (0+255),b
   986   0032AE  0E00               	movlw	high main@buf
   987   0032B0  6F61               	movwf	(sprintf@s+1)& (0+255),b
   988   0032B2  0E2D               	movlw	low STR_2
   989   0032B4  6F62               	movwf	sprintf@fmt& (0+255),b
   990   0032B6  0E0E               	movlw	high STR_2
   991   0032B8  6F63               	movwf	(sprintf@fmt+1)& (0+255),b
   992   0032BA  C0ED  F064         	movff	_vals,?_sprintf+4
   993   0032BE  C0EE  F065         	movff	_vals+1,?_sprintf+5
   994   0032C2  C0EF  F066         	movff	_vals+2,?_sprintf+6
   995   0032C6  C0F0  F067         	movff	_vals+3,?_sprintf+7
   996   0032CA  C0F1  F068         	movff	_vals+4,?_sprintf+8
   997   0032CE  C0F2  F069         	movff	_vals+5,?_sprintf+9
   998   0032D2  C0F3  F06A         	movff	_vals+6,?_sprintf+10
   999   0032D6  C0F4  F06B         	movff	_vals+7,?_sprintf+11
  1000   0032DA  ECCE  F01A         	call	_sprintf	;wreg free
  1001   0032DE                     l3459:
  1002                           
  1003                           ;main.c: 66:     sendStringSerial4(buf);
  1004   0032DE  0E80               	movlw	low main@buf
  1005   0032E0  6E02               	movwf	sendStringSerial4@string^0,c
  1006   0032E2  0E00               	movlw	high main@buf
  1007   0032E4  6E03               	movwf	(sendStringSerial4@string+1)^0,c
  1008   0032E6  EC6D  F01C         	call	_sendStringSerial4	;wreg free
  1009   0032EA  EF07  F019         	goto	l3449
  1010   0032EE  EF07  F000         	goto	start
  1011   0032F2                     __end_of_main:
  1012                           	callstack 0
  1013                           
  1014 ;; *************** function _sprintf *****************
  1015 ;; Defined at:
  1016 ;;		line 9 in file "C:\Program Files\Microchip\xc8\v2.40\pic\sources\c99\common\nf_sprintf.c"
  1017 ;; Parameters:    Size  Location     Type
  1018 ;;  s               2    0[BANK0 ] PTR unsigned char 
  1019 ;;		 -> main@buf(100), 
  1020 ;;  fmt             2    2[BANK0 ] PTR const unsigned char 
  1021 ;;		 -> STR_2(34), STR_1(44), 
  1022 ;; Auto vars:     Size  Location     Type
  1023 ;;  f              11   16[BANK0 ] struct _IO_FILE
  1024 ;;  ap              2   14[BANK0 ] PTR void [1]
  1025 ;;		 -> ?_sprintf(2), 
  1026 ;;  ret             2    0        int 
  1027 ;; Return value:  Size  Location     Type
  1028 ;;                  2    0[BANK0 ] int 
  1029 ;; Registers used:
  1030 ;;		wreg, fsr1l, fsr1h, fsr2l, fsr2h, status,2, status,0, tblptrl, tblptrh, tblptru, cstack
  1031 ;; Tracked objects:
  1032 ;;		On entry : 0/0
  1033 ;;		On exit  : 0/0
  1034 ;;		Unchanged: 0/0
  1035 ;; Data sizes:     COMRAM   BANK0   BANK1   BANK2   BANK3   BANK4   BANK5   BANK6   BANK7   BANK8   BANK9  BANK10  BANK1
      +1  BANK12  BANK13
  1036 ;;      Params:         0      14       0       0       0       0       0       0       0       0       0       0       
      +0       0       0
  1037 ;;      Locals:         0      13       0       0       0       0       0       0       0       0       0       0       
      +0       0       0
  1038 ;;      Temps:          0       0       0       0       0       0       0       0       0       0       0       0       
      +0       0       0
  1039 ;;      Totals:         0      27       0       0       0       0       0       0       0       0       0       0       
      +0       0       0
  1040 ;;Total ram usage:       27 bytes
  1041 ;; Hardware stack levels used: 1
  1042 ;; Hardware stack levels required when called: 8
  1043 ;; This function calls:
  1044 ;;		_vfprintf
  1045 ;; This function is called by:
  1046 ;;		_main
  1047 ;; This function uses a non-reentrant model
  1048 ;;
  1049                           
  1050                           	psect	text1
  1051   00359C                     __ptext1:
  1052                           	callstack 0
  1053   00359C                     _sprintf:
  1054                           	callstack 22
  1055   00359C  0E64               	movlw	low (?_sprintf+4)
  1056   00359E  0100               	movlb	0	; () banked
  1057   0035A0  6F6E               	movwf	sprintf@ap& (0+255),b
  1058   0035A2  0E00               	movlw	high (?_sprintf+4)
  1059   0035A4  6F6F               	movwf	(sprintf@ap+1)& (0+255),b
  1060   0035A6  C060  F070         	movff	sprintf@s,sprintf@f
  1061   0035AA  C061  F071         	movff	sprintf@s+1,sprintf@f+1
  1062   0035AE                     
  1063                           ; BSR set to: 0
  1064   0035AE  0E00               	movlw	0
  1065   0035B0  6F74               	movwf	(sprintf@f+4)& (0+255),b
  1066   0035B2  0E00               	movlw	0
  1067   0035B4  6F73               	movwf	(sprintf@f+3)& (0+255),b
  1068   0035B6                     
  1069                           ; BSR set to: 0
  1070   0035B6  0E00               	movlw	0
  1071   0035B8  6F7A               	movwf	(sprintf@f+10)& (0+255),b
  1072   0035BA  0E00               	movlw	0
  1073   0035BC  6F79               	movwf	(sprintf@f+9)& (0+255),b
  1074   0035BE                     
  1075                           ; BSR set to: 0
  1076   0035BE  0E70               	movlw	low sprintf@f
  1077   0035C0  6E51               	movwf	vfprintf@fp^0,c
  1078   0035C2  0E00               	movlw	high sprintf@f
  1079   0035C4  6E52               	movwf	(vfprintf@fp+1)^0,c
  1080   0035C6  C062  F053         	movff	sprintf@fmt,vfprintf@fmt
  1081   0035CA  C063  F054         	movff	sprintf@fmt+1,vfprintf@fmt+1
  1082   0035CE  0E6E               	movlw	low sprintf@ap
  1083   0035D0  6E55               	movwf	vfprintf@ap^0,c
  1084   0035D2  0E00               	movlw	high sprintf@ap
  1085   0035D4  6E56               	movwf	(vfprintf@ap+1)^0,c
  1086   0035D6  ECC0  F01B         	call	_vfprintf	;wreg free
  1087   0035DA  0100               	movlb	0	; () banked
  1088   0035DC  5173               	movf	(sprintf@f+3)& (0+255),w,b
  1089   0035DE  2560               	addwf	sprintf@s& (0+255),w,b
  1090   0035E0  6ED9               	movwf	fsr2l,c
  1091   0035E2  5174               	movf	(sprintf@f+4)& (0+255),w,b
  1092   0035E4  2161               	addwfc	(sprintf@s+1)& (0+255),w,b
  1093   0035E6  6EDA               	movwf	fsr2h,c
  1094   0035E8  0E00               	movlw	0
  1095   0035EA  6EDF               	movwf	indf2,c
  1096   0035EC                     
  1097                           ; BSR set to: 0
  1098   0035EC  0012               	return		;funcret
  1099   0035EE                     __end_of_sprintf:
  1100                           	callstack 0
  1101                           
  1102 ;; *************** function _vfprintf *****************
  1103 ;; Defined at:
  1104 ;;		line 1520 in file "C:\Program Files\Microchip\xc8\v2.40\pic\sources\c99\common\doprnt.c"
  1105 ;; Parameters:    Size  Location     Type
  1106 ;;  fp              2   80[COMRAM] PTR struct _IO_FILE
  1107 ;;		 -> sprintf@f(11), 
  1108 ;;  fmt             2   82[COMRAM] PTR const unsigned char 
  1109 ;;		 -> STR_2(34), STR_1(44), 
  1110 ;;  ap              2   84[COMRAM] PTR PTR void 
  1111 ;;		 -> sprintf@ap(2), 
  1112 ;; Auto vars:     Size  Location     Type
  1113 ;;  cfmt            2   86[COMRAM] PTR unsigned char 
  1114 ;;		 -> STR_2(34), STR_1(44), 
  1115 ;; Return value:  Size  Location     Type
  1116 ;;                  2   80[COMRAM] int 
  1117 ;; Registers used:
  1118 ;;		wreg, fsr1l, fsr1h, fsr2l, fsr2h, status,2, status,0, tblptrl, tblptrh, tblptru, cstack
  1119 ;; Tracked objects:
  1120 ;;		On entry : 0/0
  1121 ;;		On exit  : 0/0
  1122 ;;		Unchanged: 0/0
  1123 ;; Data sizes:     COMRAM   BANK0   BANK1   BANK2   BANK3   BANK4   BANK5   BANK6   BANK7   BANK8   BANK9  BANK10  BANK1
      +1  BANK12  BANK13
  1124 ;;      Params:         6       0       0       0       0       0       0       0       0       0       0       0       
      +0       0       0
  1125 ;;      Locals:         2       0       0       0       0       0       0       0       0       0       0       0       
      +0       0       0
  1126 ;;      Temps:          0       0       0       0       0       0       0       0       0       0       0       0       
      +0       0       0
  1127 ;;      Totals:         8       0       0       0       0       0       0       0       0       0       0       0       
      +0       0       0
  1128 ;;Total ram usage:        8 bytes
  1129 ;; Hardware stack levels used: 1
  1130 ;; Hardware stack levels required when called: 7
  1131 ;; This function calls:
  1132 ;;		_vfpfcnvrt
  1133 ;; This function is called by:
  1134 ;;		_sprintf
  1135 ;; This function uses a non-reentrant model
  1136 ;;
  1137                           
  1138                           	psect	text2
  1139   003780                     __ptext2:
  1140                           	callstack 0
  1141   003780                     _vfprintf:
  1142                           	callstack 22
  1143   003780                     
  1144                           ;C:\Program Files\Microchip\xc8\v2.40\pic\sources\c99\common\doprnt.c: 1520: int vfprint
      +                          f(FILE *fp, const char *fmt, va_list ap);C:\Program Files\Microchip\xc8\v2.40\pic\source
      +                          s\c99\common\doprnt.c: 1521: {;C:\Program Files\Microchip\xc8\v2.40\pic\sources\c99\comm
      +                          on\doprnt.c: 1523:     char *cfmt;;C:\Program Files\Microchip\xc8\v2.40\pic\sources\c99\
      +                          common\doprnt.c: 1525:     cfmt = (char *)fmt;
  1145   003780  C053  F057         	movff	vfprintf@fmt,vfprintf@cfmt
  1146   003784  C054  F058         	movff	vfprintf@fmt+1,vfprintf@cfmt+1
  1147                           
  1148                           ;C:\Program Files\Microchip\xc8\v2.40\pic\sources\c99\common\doprnt.c: 1529:     while (
      +                          *cfmt) {
  1149   003788  EFD4  F01B         	goto	l3131
  1150   00378C                     l3129:
  1151                           
  1152                           ;C:\Program Files\Microchip\xc8\v2.40\pic\sources\c99\common\doprnt.c: 1533:    vfpfcnvr
      +                          t(fp, &cfmt, ap);
  1153   00378C  C051  F03F         	movff	vfprintf@fp,vfpfcnvrt@fp
  1154   003790  C052  F040         	movff	vfprintf@fp+1,vfpfcnvrt@fp+1
  1155   003794  0E57               	movlw	low vfprintf@cfmt
  1156   003796  6E41               	movwf	vfpfcnvrt@fmt^0,c
  1157   003798  0E00               	movlw	high vfprintf@cfmt
  1158   00379A  6E42               	movwf	(vfpfcnvrt@fmt+1)^0,c
  1159   00379C  C055  F043         	movff	vfprintf@ap,vfpfcnvrt@ap
  1160   0037A0  C056  F044         	movff	vfprintf@ap+1,vfpfcnvrt@ap+1
  1161   0037A4  ECD3  F017         	call	_vfpfcnvrt	;wreg free
  1162   0037A8                     l3131:
  1163                           
  1164                           ;C:\Program Files\Microchip\xc8\v2.40\pic\sources\c99\common\doprnt.c: 1529:     while (
      +                          *cfmt) {
  1165   0037A8  C057  FFF6         	movff	vfprintf@cfmt,tblptrl
  1166   0037AC  C058  FFF7         	movff	vfprintf@cfmt+1,tblptrh
  1167   0037B0                     	if	0	;tblptru may be non-zero
  1168   0037B0                     	endif
  1169   0037B0                     	if	0	;tblptru may be non-zero
  1170   0037B0                     	endif
  1171   0037B0  0008               	tblrd		*
  1172   0037B2  50F5               	movf	tablat,w,c
  1173   0037B4  0900               	iorlw	0
  1174   0037B6  A4D8               	btfss	status,2,c
  1175   0037B8  EFE0  F01B         	goto	u3211
  1176   0037BC  EFE2  F01B         	goto	u3210
  1177   0037C0                     u3211:
  1178   0037C0  EFC6  F01B         	goto	l3129
  1179   0037C4                     u3210:
  1180   0037C4                     
  1181                           ;C:\Program Files\Microchip\xc8\v2.40\pic\sources\c99\common\doprnt.c: 1538:  return 0;
  1182   0037C4  0E00               	movlw	0
  1183   0037C6  6E52               	movwf	(?_vfprintf+1)^0,c
  1184   0037C8  0E00               	movlw	0
  1185   0037CA  6E51               	movwf	?_vfprintf^0,c
  1186   0037CC  0012               	return		;funcret
  1187   0037CE                     __end_of_vfprintf:
  1188                           	callstack 0
  1189                           
  1190 ;; *************** function _vfpfcnvrt *****************
  1191 ;; Defined at:
  1192 ;;		line 1007 in file "C:\Program Files\Microchip\xc8\v2.40\pic\sources\c99\common\doprnt.c"
  1193 ;; Parameters:    Size  Location     Type
  1194 ;;  fp              2   62[COMRAM] PTR struct _IO_FILE
  1195 ;;		 -> sprintf@f(11), 
  1196 ;;  fmt             2   64[COMRAM] PTR PTR unsigned char 
  1197 ;;		 -> vfprintf@cfmt(2), 
  1198 ;;  ap              2   66[COMRAM] PTR PTR void 
  1199 ;;		 -> sprintf@ap(2), 
  1200 ;; Auto vars:     Size  Location     Type
  1201 ;;  convarg         8   70[COMRAM] struct .
  1202 ;;  cp              2   78[COMRAM] PTR unsigned char 
  1203 ;;		 -> STR_2(34), STR_1(44), 
  1204 ;;  i               2    0        int 
  1205 ;;  done            2    0        int 
  1206 ;;  c               1    0        unsigned char 
  1207 ;; Return value:  Size  Location     Type
  1208 ;;                  1    wreg      void 
  1209 ;; Registers used:
  1210 ;;		wreg, fsr1l, fsr1h, fsr2l, fsr2h, status,2, status,0, tblptrl, tblptrh, tblptru, cstack
  1211 ;; Tracked objects:
  1212 ;;		On entry : 0/0
  1213 ;;		On exit  : 0/0
  1214 ;;		Unchanged: 0/0
  1215 ;; Data sizes:     COMRAM   BANK0   BANK1   BANK2   BANK3   BANK4   BANK5   BANK6   BANK7   BANK8   BANK9  BANK10  BANK1
      +1  BANK12  BANK13
  1216 ;;      Params:         6       0       0       0       0       0       0       0       0       0       0       0       
      +0       0       0
  1217 ;;      Locals:        10       0       0       0       0       0       0       0       0       0       0       0       
      +0       0       0
  1218 ;;      Temps:          2       0       0       0       0       0       0       0       0       0       0       0       
      +0       0       0
  1219 ;;      Totals:        18       0       0       0       0       0       0       0       0       0       0       0       
      +0       0       0
  1220 ;;Total ram usage:       18 bytes
  1221 ;; Hardware stack levels used: 1
  1222 ;; Hardware stack levels required when called: 6
  1223 ;; This function calls:
  1224 ;;		_dtoa
  1225 ;;		_fputc
  1226 ;; This function is called by:
  1227 ;;		_vfprintf
  1228 ;; This function uses a non-reentrant model
  1229 ;;
  1230                           
  1231                           	psect	text3
  1232   002FA6                     __ptext3:
  1233                           	callstack 0
  1234   002FA6                     _vfpfcnvrt:
  1235                           	callstack 22
  1236   002FA6                     
  1237                           ;C:\Program Files\Microchip\xc8\v2.40\pic\sources\c99\common\doprnt.c: 1007: vfpfcnvrt(F
      +                          ILE *fp, char *fmt[], va_list ap);C:\Program Files\Microchip\xc8\v2.40\pic\sources\c99\c
      +                          ommon\doprnt.c: 1008: {;C:\Program Files\Microchip\xc8\v2.40\pic\sources\c99\common\dopr
      +                          nt.c: 1009:     char c, *cp;;C:\Program Files\Microchip\xc8\v2.40\pic\sources\c99\common
      +                          \doprnt.c: 1010:     int done, i;;C:\Program Files\Microchip\xc8\v2.40\pic\sources\c99\c
      +                          ommon\doprnt.c: 1016:  } convarg;;C:\Program Files\Microchip\xc8\v2.40\pic\sources\c99\c
      +                          ommon\doprnt.c: 1019:     if ((*fmt)[0] == '%') {
  1238   002FA6  C041  FFD9         	movff	vfpfcnvrt@fmt,fsr2l
  1239   002FAA  C042  FFDA         	movff	vfpfcnvrt@fmt+1,fsr2h
  1240   002FAE  CFDE FFF6          	movff	postinc2,tblptrl
  1241   002FB2  CFDD FFF7          	movff	postdec2,tblptrh
  1242   002FB6                     	if	0	;tblptru may be non-zero
  1243   002FB6                     	endif
  1244   002FB6                     	if	0	;tblptru may be non-zero
  1245   002FB6                     	endif
  1246   002FB6  0008               	tblrd		*
  1247   002FB8  50F5               	movf	tablat,w,c
  1248   002FBA  0A25               	xorlw	37
  1249   002FBC  A4D8               	btfss	status,2,c
  1250   002FBE  EFE3  F017         	goto	u2571
  1251   002FC2  EFE5  F017         	goto	u2570
  1252   002FC6                     u2571:
  1253   002FC6  EF65  F018         	goto	l2721
  1254   002FCA                     u2570:
  1255   002FCA                     
  1256                           ;C:\Program Files\Microchip\xc8\v2.40\pic\sources\c99\common\doprnt.c: 1020:         ++*
      +                          fmt;
  1257   002FCA  C041  FFD9         	movff	vfpfcnvrt@fmt,fsr2l
  1258   002FCE  C042  FFDA         	movff	vfpfcnvrt@fmt+1,fsr2h
  1259   002FD2  2ADE               	incf	postinc2,f,c
  1260   002FD4  0E00               	movlw	0
  1261   002FD6  22DD               	addwfc	postdec2,f,c
  1262   002FD8                     
  1263                           ;C:\Program Files\Microchip\xc8\v2.40\pic\sources\c99\common\doprnt.c: 1022:         fla
      +                          gs = width = 0;
  1264   002FD8  0E00               	movlw	0
  1265   002FDA  0100               	movlb	0	; () banked
  1266   002FDC  6FE7               	movwf	(_width+1)& (0+255),b
  1267   002FDE  0E00               	movlw	0
  1268   002FE0  6FE6               	movwf	_width& (0+255),b
  1269   002FE2  C0E6  F0EC         	movff	_width,_flags
  1270   002FE6                     
  1271                           ; BSR set to: 0
  1272                           ;C:\Program Files\Microchip\xc8\v2.40\pic\sources\c99\common\doprnt.c: 1023:         pre
      +                          c = -1;
  1273   002FE6  69E8               	setf	_prec& (0+255),b
  1274   002FE8  69E9               	setf	(_prec+1)& (0+255),b
  1275   002FEA                     
  1276                           ; BSR set to: 0
  1277                           ;C:\Program Files\Microchip\xc8\v2.40\pic\sources\c99\common\doprnt.c: 1117:   cp = *fmt
      +                          ;
  1278   002FEA  C041  FFD9         	movff	vfpfcnvrt@fmt,fsr2l
  1279   002FEE  C042  FFDA         	movff	vfpfcnvrt@fmt+1,fsr2h
  1280   002FF2  CFDE F04F          	movff	postinc2,vfpfcnvrt@cp
  1281   002FF6  CFDD F050          	movff	postdec2,vfpfcnvrt@cp+1
  1282   002FFA                     
  1283                           ; BSR set to: 0
  1284                           ;C:\Program Files\Microchip\xc8\v2.40\pic\sources\c99\common\doprnt.c: 1187:   if (*cp =
      +                          = 'd' || *cp == 'i') {
  1285   002FFA  C04F  FFF6         	movff	vfpfcnvrt@cp,tblptrl
  1286   002FFE  C050  FFF7         	movff	vfpfcnvrt@cp+1,tblptrh
  1287   003002                     	if	0	;tblptru may be non-zero
  1288   003002                     	endif
  1289   003002                     	if	0	;tblptru may be non-zero
  1290   003002                     	endif
  1291   003002  0008               	tblrd		*
  1292   003004  50F5               	movf	tablat,w,c
  1293   003006  0A64               	xorlw	100
  1294   003008  B4D8               	btfsc	status,2,c
  1295   00300A  EF09  F018         	goto	u2581
  1296   00300E  EF0B  F018         	goto	u2580
  1297   003012                     u2581:
  1298   003012  EF19  F018         	goto	l2711
  1299   003016                     u2580:
  1300   003016                     
  1301                           ; BSR set to: 0
  1302   003016  C04F  FFF6         	movff	vfpfcnvrt@cp,tblptrl
  1303   00301A  C050  FFF7         	movff	vfpfcnvrt@cp+1,tblptrh
  1304   00301E                     	if	0	;tblptru may be non-zero
  1305   00301E                     	endif
  1306   00301E                     	if	0	;tblptru may be non-zero
  1307   00301E                     	endif
  1308   00301E  0008               	tblrd		*
  1309   003020  50F5               	movf	tablat,w,c
  1310   003022  0A69               	xorlw	105
  1311   003024  A4D8               	btfss	status,2,c
  1312   003026  EF17  F018         	goto	u2591
  1313   00302A  EF19  F018         	goto	u2590
  1314   00302E                     u2591:
  1315   00302E  EF5C  F018         	goto	l2717
  1316   003032                     u2590:
  1317   003032                     l2711:
  1318                           
  1319                           ; BSR set to: 0
  1320                           ;C:\Program Files\Microchip\xc8\v2.40\pic\sources\c99\common\doprnt.c: 1230:    convarg.
      +                          ll = (long long)(int)(*(int *)__va_arg(*(int **)ap, (int)0));
  1321   003032  C043  FFD9         	movff	vfpfcnvrt@ap,fsr2l
  1322   003036  C044  FFDA         	movff	vfpfcnvrt@ap+1,fsr2h
  1323   00303A  CFDF F045          	movff	indf2,??_vfpfcnvrt
  1324   00303E  0E02               	movlw	2
  1325   003040  26DE               	addwf	postinc2,f,c
  1326   003042  CFDF F046          	movff	indf2,??_vfpfcnvrt+1
  1327   003046  0E00               	movlw	0
  1328   003048  22DD               	addwfc	postdec2,f,c
  1329   00304A  C045  FFD9         	movff	??_vfpfcnvrt,fsr2l
  1330   00304E  C046  FFDA         	movff	??_vfpfcnvrt+1,fsr2h
  1331   003052  CFDE F047          	movff	postinc2,vfpfcnvrt@convarg
  1332   003056  CFDD F048          	movff	postdec2,vfpfcnvrt@convarg+1
  1333   00305A  0E00               	movlw	0
  1334   00305C  BE48               	btfsc	(vfpfcnvrt@convarg+1)^0,7,c
  1335   00305E  0EFF               	movlw	-1
  1336   003060  6E49               	movwf	(vfpfcnvrt@convarg+2)^0,c
  1337   003062  6E4A               	movwf	(vfpfcnvrt@convarg+3)^0,c
  1338   003064  6E4B               	movwf	(vfpfcnvrt@convarg+4)^0,c
  1339   003066  6E4C               	movwf	(vfpfcnvrt@convarg+5)^0,c
  1340   003068  6E4D               	movwf	(vfpfcnvrt@convarg+6)^0,c
  1341   00306A  6E4E               	movwf	(vfpfcnvrt@convarg+7)^0,c
  1342                           
  1343                           ;C:\Program Files\Microchip\xc8\v2.40\pic\sources\c99\common\doprnt.c: 1232:    *fmt = c
      +                          p+1;
  1344   00306C  0E01               	movlw	1
  1345   00306E  244F               	addwf	vfpfcnvrt@cp^0,w,c
  1346   003070  6E45               	movwf	??_vfpfcnvrt^0,c
  1347   003072  0E00               	movlw	0
  1348   003074  2050               	addwfc	(vfpfcnvrt@cp+1)^0,w,c
  1349   003076  6E46               	movwf	(??_vfpfcnvrt+1)^0,c
  1350   003078  C041  FFD9         	movff	vfpfcnvrt@fmt,fsr2l
  1351   00307C  C042  FFDA         	movff	vfpfcnvrt@fmt+1,fsr2h
  1352   003080  C045  FFDE         	movff	??_vfpfcnvrt,postinc2
  1353   003084  C046  FFDD         	movff	??_vfpfcnvrt+1,postdec2
  1354   003088                     
  1355                           ; BSR set to: 0
  1356                           ;C:\Program Files\Microchip\xc8\v2.40\pic\sources\c99\common\doprnt.c: 1233:    return (
      +                          void) dtoa(fp, convarg.ll);;	Return value of _vfpfcnvrt is never used
  1357   003088  C03F  F01C         	movff	vfpfcnvrt@fp,dtoa@fp
  1358   00308C  C040  F01D         	movff	vfpfcnvrt@fp+1,dtoa@fp+1
  1359   003090  C047  F01E         	movff	vfpfcnvrt@convarg,dtoa@d
  1360   003094  C048  F01F         	movff	vfpfcnvrt@convarg+1,dtoa@d+1
  1361   003098  C049  F020         	movff	vfpfcnvrt@convarg+2,dtoa@d+2
  1362   00309C  C04A  F021         	movff	vfpfcnvrt@convarg+3,dtoa@d+3
  1363   0030A0  C04B  F022         	movff	vfpfcnvrt@convarg+4,dtoa@d+4
  1364   0030A4  C04C  F023         	movff	vfpfcnvrt@convarg+5,dtoa@d+5
  1365   0030A8  C04D  F024         	movff	vfpfcnvrt@convarg+6,dtoa@d+6
  1366   0030AC  C04E  F025         	movff	vfpfcnvrt@convarg+7,dtoa@d+7
  1367   0030B0  EC44  F014         	call	_dtoa	;wreg free
  1368   0030B4  EF79  F018         	goto	l1059
  1369   0030B8                     l2717:
  1370                           
  1371                           ;C:\Program Files\Microchip\xc8\v2.40\pic\sources\c99\common\doprnt.c: 1509:         ++*
      +                          fmt;
  1372   0030B8  C041  FFD9         	movff	vfpfcnvrt@fmt,fsr2l
  1373   0030BC  C042  FFDA         	movff	vfpfcnvrt@fmt+1,fsr2h
  1374   0030C0  2ADE               	incf	postinc2,f,c
  1375   0030C2  0E00               	movlw	0
  1376   0030C4  22DD               	addwfc	postdec2,f,c
  1377   0030C6  EF79  F018         	goto	l1059
  1378   0030CA                     l2721:
  1379                           
  1380                           ;C:\Program Files\Microchip\xc8\v2.40\pic\sources\c99\common\doprnt.c: 1514:     fputc((
      +                          int)(*fmt)[0], fp);
  1381   0030CA  C041  FFD9         	movff	vfpfcnvrt@fmt,fsr2l
  1382   0030CE  C042  FFDA         	movff	vfpfcnvrt@fmt+1,fsr2h
  1383   0030D2  CFDE FFF6          	movff	postinc2,tblptrl
  1384   0030D6  CFDD FFF7          	movff	postdec2,tblptrh
  1385   0030DA                     	if	0	;tblptru may be non-zero
  1386   0030DA                     	endif
  1387   0030DA                     	if	0	;tblptru may be non-zero
  1388   0030DA                     	endif
  1389   0030DA  0008               	tblrd		*
  1390   0030DC  50F5               	movf	tablat,w,c
  1391   0030DE  6E01               	movwf	fputc@c^0,c
  1392   0030E0  6A02               	clrf	(fputc@c+1)^0,c
  1393   0030E2  C03F  F003         	movff	vfpfcnvrt@fp,fputc@fp
  1394   0030E6  C040  F004         	movff	vfpfcnvrt@fp+1,fputc@fp+1
  1395   0030EA  EC79  F019         	call	_fputc	;wreg free
  1396   0030EE  EF5C  F018         	goto	l2717
  1397   0030F2                     l1059:
  1398   0030F2  0012               	return		;funcret
  1399   0030F4                     __end_of_vfpfcnvrt:
  1400                           	callstack 0
  1401                           
  1402 ;; *************** function _dtoa *****************
  1403 ;; Defined at:
  1404 ;;		line 443 in file "C:\Program Files\Microchip\xc8\v2.40\pic\sources\c99\common\doprnt.c"
  1405 ;; Parameters:    Size  Location     Type
  1406 ;;  fp              2   27[COMRAM] PTR struct _IO_FILE
  1407 ;;		 -> sprintf@f(11), 
  1408 ;;  d               8   29[COMRAM] long long 
  1409 ;; Auto vars:     Size  Location     Type
  1410 ;;  n               8   51[COMRAM] long long 
  1411 ;;  i               2   59[COMRAM] int 
  1412 ;;  w               2   49[COMRAM] int 
  1413 ;;  p               2   47[COMRAM] int 
  1414 ;;  s               1   61[COMRAM] unsigned char 
  1415 ;; Return value:  Size  Location     Type
  1416 ;;                  1    wreg      void 
  1417 ;; Registers used:
  1418 ;;		wreg, fsr1l, fsr1h, fsr2l, fsr2h, status,2, status,0, cstack
  1419 ;; Tracked objects:
  1420 ;;		On entry : 0/0
  1421 ;;		On exit  : 0/0
  1422 ;;		Unchanged: 0/0
  1423 ;; Data sizes:     COMRAM   BANK0   BANK1   BANK2   BANK3   BANK4   BANK5   BANK6   BANK7   BANK8   BANK9  BANK10  BANK1
      +1  BANK12  BANK13
  1424 ;;      Params:        10       0       0       0       0       0       0       0       0       0       0       0       
      +0       0       0
  1425 ;;      Locals:        17       0       0       0       0       0       0       0       0       0       0       0       
      +0       0       0
  1426 ;;      Temps:          8       0       0       0       0       0       0       0       0       0       0       0       
      +0       0       0
  1427 ;;      Totals:        35       0       0       0       0       0       0       0       0       0       0       0       
      +0       0       0
  1428 ;;Total ram usage:       35 bytes
  1429 ;; Hardware stack levels used: 1
  1430 ;; Hardware stack levels required when called: 5
  1431 ;; This function calls:
  1432 ;;		___aodiv
  1433 ;;		___aomod
  1434 ;;		_abs
  1435 ;;		_pad
  1436 ;; This function is called by:
  1437 ;;		_vfpfcnvrt
  1438 ;; This function uses a non-reentrant model
  1439 ;;
  1440                           
  1441                           	psect	text4
  1442   002888                     __ptext4:
  1443                           	callstack 0
  1444   002888                     _dtoa:
  1445                           	callstack 22
  1446   002888                     
  1447                           ;C:\Program Files\Microchip\xc8\v2.40\pic\sources\c99\common\doprnt.c: 443: static void 
      +                          dtoa(FILE *fp, long long d);C:\Program Files\Microchip\xc8\v2.40\pic\sources\c99\common\
      +                          doprnt.c: 444: {;C:\Program Files\Microchip\xc8\v2.40\pic\sources\c99\common\doprnt.c: 4
      +                          45:  char s;;C:\Program Files\Microchip\xc8\v2.40\pic\sources\c99\common\doprnt.c: 446: 
      +                              int i, p, w;;C:\Program Files\Microchip\xc8\v2.40\pic\sources\c99\common\doprnt.c: 4
      +                          47:     long long n;;C:\Program Files\Microchip\xc8\v2.40\pic\sources\c99\common\doprnt.
      +                          c: 450:     n = d;
  1448   002888  C01E  F034         	movff	dtoa@d,dtoa@n
  1449   00288C  C01F  F035         	movff	dtoa@d+1,dtoa@n+1
  1450   002890  C020  F036         	movff	dtoa@d+2,dtoa@n+2
  1451   002894  C021  F037         	movff	dtoa@d+3,dtoa@n+3
  1452   002898  C022  F038         	movff	dtoa@d+4,dtoa@n+4
  1453   00289C  C023  F039         	movff	dtoa@d+5,dtoa@n+5
  1454   0028A0  C024  F03A         	movff	dtoa@d+6,dtoa@n+6
  1455   0028A4  C025  F03B         	movff	dtoa@d+7,dtoa@n+7
  1456   0028A8                     
  1457                           ;C:\Program Files\Microchip\xc8\v2.40\pic\sources\c99\common\doprnt.c: 451:     s = n < 
      +                          0 ? 1 : 0;
  1458   0028A8  BE3B               	btfsc	(dtoa@n+7)^0,7,c
  1459   0028AA  EF59  F014         	goto	u2061
  1460   0028AE  EF5C  F014         	goto	u2060
  1461   0028B2                     u2061:
  1462   0028B2  0E01               	movlw	1
  1463   0028B4  EF5D  F014         	goto	u2070
  1464   0028B8                     u2060:
  1465   0028B8  0E00               	movlw	0
  1466   0028BA                     u2070:
  1467   0028BA  6E3E               	movwf	dtoa@s^0,c
  1468   0028BC                     
  1469                           ;C:\Program Files\Microchip\xc8\v2.40\pic\sources\c99\common\doprnt.c: 452:     if (s) {
  1470   0028BC  503E               	movf	dtoa@s^0,w,c
  1471   0028BE  B4D8               	btfsc	status,2,c
  1472   0028C0  EF64  F014         	goto	u2081
  1473   0028C4  EF66  F014         	goto	u2080
  1474   0028C8                     u2081:
  1475   0028C8  EF76  F014         	goto	l2421
  1476   0028CC                     u2080:
  1477   0028CC                     
  1478                           ;C:\Program Files\Microchip\xc8\v2.40\pic\sources\c99\common\doprnt.c: 453:         n = 
      +                          -n;
  1479   0028CC  1E3B               	comf	(dtoa@n+7)^0,f,c
  1480   0028CE  1E3A               	comf	(dtoa@n+6)^0,f,c
  1481   0028D0  1E39               	comf	(dtoa@n+5)^0,f,c
  1482   0028D2  1E38               	comf	(dtoa@n+4)^0,f,c
  1483   0028D4  1E37               	comf	(dtoa@n+3)^0,f,c
  1484   0028D6  1E36               	comf	(dtoa@n+2)^0,f,c
  1485   0028D8  1E35               	comf	(dtoa@n+1)^0,f,c
  1486   0028DA  6C34               	negf	dtoa@n^0,c
  1487   0028DC  0E00               	movlw	0
  1488   0028DE  2235               	addwfc	(dtoa@n+1)^0,f,c
  1489   0028E0  2236               	addwfc	(dtoa@n+2)^0,f,c
  1490   0028E2  2237               	addwfc	(dtoa@n+3)^0,f,c
  1491   0028E4  2238               	addwfc	(dtoa@n+4)^0,f,c
  1492   0028E6  2239               	addwfc	(dtoa@n+5)^0,f,c
  1493   0028E8  223A               	addwfc	(dtoa@n+6)^0,f,c
  1494   0028EA  223B               	addwfc	(dtoa@n+7)^0,f,c
  1495   0028EC                     l2421:
  1496                           
  1497                           ;C:\Program Files\Microchip\xc8\v2.40\pic\sources\c99\common\doprnt.c: 462:     p = (0 <
      +                           prec) ? prec : 1;
  1498   0028EC  0100               	movlb	0	; () banked
  1499   0028EE  BFE9               	btfsc	(_prec+1)& (0+255),7,b
  1500   0028F0  EF84  F014         	goto	u2090
  1501   0028F4  51E9               	movf	(_prec+1)& (0+255),w,b
  1502   0028F6  E106               	bnz	u2091
  1503   0028F8  05E8               	decf	_prec& (0+255),w,b
  1504   0028FA  B0D8               	btfsc	status,0,c
  1505   0028FC  EF82  F014         	goto	u2091
  1506   002900  EF84  F014         	goto	u2090
  1507   002904                     u2091:
  1508   002904  EF8A  F014         	goto	l1038
  1509   002908                     u2090:
  1510   002908                     
  1511                           ; BSR set to: 0
  1512   002908  0E00               	movlw	0
  1513   00290A  6E31               	movwf	(dtoa@p+1)^0,c
  1514   00290C  0E01               	movlw	1
  1515   00290E  6E30               	movwf	dtoa@p^0,c
  1516   002910  EF8E  F014         	goto	l1040
  1517   002914                     l1038:
  1518                           
  1519                           ; BSR set to: 0
  1520   002914  C0E8  F030         	movff	_prec,dtoa@p
  1521   002918  C0E9  F031         	movff	_prec+1,dtoa@p+1
  1522   00291C                     l1040:
  1523                           
  1524                           ; BSR set to: 0
  1525                           ;C:\Program Files\Microchip\xc8\v2.40\pic\sources\c99\common\doprnt.c: 463:     w = widt
      +                          h;
  1526   00291C  C0E6  F032         	movff	_width,dtoa@w
  1527   002920  C0E7  F033         	movff	_width+1,dtoa@w+1
  1528   002924                     
  1529                           ; BSR set to: 0
  1530                           ;C:\Program Files\Microchip\xc8\v2.40\pic\sources\c99\common\doprnt.c: 464:     if (s
  1531   002924  503E               	movf	dtoa@s^0,w,c
  1532   002926  B4D8               	btfsc	status,2,c
  1533   002928  EF98  F014         	goto	u2101
  1534   00292C  EF9A  F014         	goto	u2100
  1535   002930                     u2101:
  1536   002930  EFB1  F014         	goto	l1041
  1537   002934                     u2100:
  1538   002934                     
  1539                           ; BSR set to: 0
  1540                           ;C:\Program Files\Microchip\xc8\v2.40\pic\sources\c99\common\doprnt.c: 468:     ) {;C:\P
      +                          rogram Files\Microchip\xc8\v2.40\pic\sources\c99\common\doprnt.c: 469:         --w;
  1541   002934  0632               	decf	dtoa@w^0,f,c
  1542   002936  A0D8               	btfss	status,0,c
  1543   002938  0633               	decf	(dtoa@w+1)^0,f,c
  1544   00293A                     
  1545                           ; BSR set to: 0
  1546                           ;C:\Program Files\Microchip\xc8\v2.40\pic\sources\c99\common\doprnt.c: 470:   s = s ? '-
      +                          ' : '+';
  1547   00293A  503E               	movf	dtoa@s^0,w,c
  1548   00293C  A4D8               	btfss	status,2,c
  1549   00293E  EFA3  F014         	goto	u2111
  1550   002942  EFA5  F014         	goto	u2110
  1551   002946                     u2111:
  1552   002946  EFAB  F014         	goto	l2433
  1553   00294A                     u2110:
  1554   00294A                     
  1555                           ; BSR set to: 0
  1556   00294A  0E00               	movlw	0
  1557   00294C  6E2F               	movwf	(_dtoa$1443+1)^0,c
  1558   00294E  0E2B               	movlw	43
  1559   002950  6E2E               	movwf	_dtoa$1443^0,c
  1560   002952  EFAF  F014         	goto	l2435
  1561   002956                     l2433:
  1562                           
  1563                           ; BSR set to: 0
  1564   002956  0E00               	movlw	0
  1565   002958  6E2F               	movwf	(_dtoa$1443+1)^0,c
  1566   00295A  0E2D               	movlw	45
  1567   00295C  6E2E               	movwf	_dtoa$1443^0,c
  1568   00295E                     l2435:
  1569                           
  1570                           ; BSR set to: 0
  1571   00295E  C02E  F03E         	movff	_dtoa$1443,dtoa@s
  1572   002962                     l1041:
  1573                           
  1574                           ; BSR set to: 0
  1575                           ;C:\Program Files\Microchip\xc8\v2.40\pic\sources\c99\common\doprnt.c: 480:     i = size
      +                          of(dbuf) - 1;
  1576   002962  0E00               	movlw	0
  1577   002964  6E3D               	movwf	(dtoa@i+1)^0,c
  1578   002966  0E1F               	movlw	31
  1579   002968  6E3C               	movwf	dtoa@i^0,c
  1580   00296A                     
  1581                           ; BSR set to: 0
  1582                           ;C:\Program Files\Microchip\xc8\v2.40\pic\sources\c99\common\doprnt.c: 481:     dbuf[i] 
      +                          = '\0';
  1583   00296A  0E00               	movlw	0
  1584   00296C  0101               	movlb	1	; () banked
  1585   00296E  6F7B               	movwf	(_dbuf+31)& (0+255),b
  1586                           
  1587                           ;C:\Program Files\Microchip\xc8\v2.40\pic\sources\c99\common\doprnt.c: 482:     while (!
      +                          (i < 1) && (n || (0 < p)
  1588   002970  EF36  F015         	goto	l2449
  1589   002974                     l2439:
  1590                           
  1591                           ;C:\Program Files\Microchip\xc8\v2.40\pic\sources\c99\common\doprnt.c: 486:     )) {;C:\
      +                          Program Files\Microchip\xc8\v2.40\pic\sources\c99\common\doprnt.c: 487:         --i;
  1592   002974  063C               	decf	dtoa@i^0,f,c
  1593   002976  A0D8               	btfss	status,0,c
  1594   002978  063D               	decf	(dtoa@i+1)^0,f,c
  1595   00297A                     
  1596                           ;C:\Program Files\Microchip\xc8\v2.40\pic\sources\c99\common\doprnt.c: 488:         dbuf
      +                          [i] = (char)((int)'0' + abs(n % 10));
  1597   00297A  0E5C               	movlw	low _dbuf
  1598   00297C  243C               	addwf	dtoa@i^0,w,c
  1599   00297E  6ED9               	movwf	fsr2l,c
  1600   002980  0E01               	movlw	high _dbuf
  1601   002982  203D               	addwfc	(dtoa@i+1)^0,w,c
  1602   002984  6EDA               	movwf	fsr2h,c
  1603   002986  C034  F001         	movff	dtoa@n,___aomod@dividend
  1604   00298A  C035  F002         	movff	dtoa@n+1,___aomod@dividend+1
  1605   00298E  C036  F003         	movff	dtoa@n+2,___aomod@dividend+2
  1606   002992  C037  F004         	movff	dtoa@n+3,___aomod@dividend+3
  1607   002996  C038  F005         	movff	dtoa@n+4,___aomod@dividend+4
  1608   00299A  C039  F006         	movff	dtoa@n+5,___aomod@dividend+5
  1609   00299E  C03A  F007         	movff	dtoa@n+6,___aomod@dividend+6
  1610   0029A2  C03B  F008         	movff	dtoa@n+7,___aomod@dividend+7
  1611   0029A6  0E0A               	movlw	10
  1612   0029A8  6E09               	movwf	___aomod@divisor^0,c
  1613   0029AA  0E00               	movlw	0
  1614   0029AC  6E0A               	movwf	(___aomod@divisor+1)^0,c
  1615   0029AE  0E00               	movlw	0
  1616   0029B0  6E0B               	movwf	(___aomod@divisor+2)^0,c
  1617   0029B2  0E00               	movlw	0
  1618   0029B4  6E0C               	movwf	(___aomod@divisor+3)^0,c
  1619   0029B6  0E00               	movlw	0
  1620   0029B8  6E0D               	movwf	(___aomod@divisor+4)^0,c
  1621   0029BA  0E00               	movlw	0
  1622   0029BC  6E0E               	movwf	(___aomod@divisor+5)^0,c
  1623   0029BE  0E00               	movlw	0
  1624   0029C0  6E0F               	movwf	(___aomod@divisor+6)^0,c
  1625   0029C2  0E00               	movlw	0
  1626   0029C4  6E10               	movwf	(___aomod@divisor+7)^0,c
  1627   0029C6  EC21  F017         	call	___aomod	;wreg free
  1628   0029CA  C001  F026         	movff	?___aomod,??_dtoa
  1629   0029CE  C002  F027         	movff	?___aomod+1,??_dtoa+1
  1630   0029D2  C003  F028         	movff	?___aomod+2,??_dtoa+2
  1631   0029D6  C004  F029         	movff	?___aomod+3,??_dtoa+3
  1632   0029DA  C005  F02A         	movff	?___aomod+4,??_dtoa+4
  1633   0029DE  C006  F02B         	movff	?___aomod+5,??_dtoa+5
  1634   0029E2  C007  F02C         	movff	?___aomod+6,??_dtoa+6
  1635   0029E6  C008  F02D         	movff	?___aomod+7,??_dtoa+7
  1636   0029EA  C026  F013         	movff	??_dtoa,abs@a
  1637   0029EE  C027  F014         	movff	??_dtoa+1,abs@a+1
  1638   0029F2  EC4D  F01C         	call	_abs	;wreg free
  1639   0029F6  5013               	movf	?_abs^0,w,c
  1640   0029F8  0F30               	addlw	48
  1641   0029FA  6EDF               	movwf	indf2,c
  1642   0029FC                     
  1643                           ;C:\Program Files\Microchip\xc8\v2.40\pic\sources\c99\common\doprnt.c: 489:         --p;
  1644   0029FC  0630               	decf	dtoa@p^0,f,c
  1645   0029FE  A0D8               	btfss	status,0,c
  1646   002A00  0631               	decf	(dtoa@p+1)^0,f,c
  1647   002A02                     
  1648                           ;C:\Program Files\Microchip\xc8\v2.40\pic\sources\c99\common\doprnt.c: 490:         --w;
  1649   002A02  0632               	decf	dtoa@w^0,f,c
  1650   002A04  A0D8               	btfss	status,0,c
  1651   002A06  0633               	decf	(dtoa@w+1)^0,f,c
  1652   002A08                     
  1653                           ;C:\Program Files\Microchip\xc8\v2.40\pic\sources\c99\common\doprnt.c: 491:         n = 
      +                          n / 10;
  1654   002A08  C034  F001         	movff	dtoa@n,___aodiv@dividend
  1655   002A0C  C035  F002         	movff	dtoa@n+1,___aodiv@dividend+1
  1656   002A10  C036  F003         	movff	dtoa@n+2,___aodiv@dividend+2
  1657   002A14  C037  F004         	movff	dtoa@n+3,___aodiv@dividend+3
  1658   002A18  C038  F005         	movff	dtoa@n+4,___aodiv@dividend+4
  1659   002A1C  C039  F006         	movff	dtoa@n+5,___aodiv@dividend+5
  1660   002A20  C03A  F007         	movff	dtoa@n+6,___aodiv@dividend+6
  1661   002A24  C03B  F008         	movff	dtoa@n+7,___aodiv@dividend+7
  1662   002A28  0E0A               	movlw	10
  1663   002A2A  6E09               	movwf	___aodiv@divisor^0,c
  1664   002A2C  0E00               	movlw	0
  1665   002A2E  6E0A               	movwf	(___aodiv@divisor+1)^0,c
  1666   002A30  0E00               	movlw	0
  1667   002A32  6E0B               	movwf	(___aodiv@divisor+2)^0,c
  1668   002A34  0E00               	movlw	0
  1669   002A36  6E0C               	movwf	(___aodiv@divisor+3)^0,c
  1670   002A38  0E00               	movlw	0
  1671   002A3A  6E0D               	movwf	(___aodiv@divisor+4)^0,c
  1672   002A3C  0E00               	movlw	0
  1673   002A3E  6E0E               	movwf	(___aodiv@divisor+5)^0,c
  1674   002A40  0E00               	movlw	0
  1675   002A42  6E0F               	movwf	(___aodiv@divisor+6)^0,c
  1676   002A44  0E00               	movlw	0
  1677   002A46  6E10               	movwf	(___aodiv@divisor+7)^0,c
  1678   002A48  EC5D  F016         	call	___aodiv	;wreg free
  1679   002A4C  C001  F034         	movff	?___aodiv,dtoa@n
  1680   002A50  C002  F035         	movff	?___aodiv+1,dtoa@n+1
  1681   002A54  C003  F036         	movff	?___aodiv+2,dtoa@n+2
  1682   002A58  C004  F037         	movff	?___aodiv+3,dtoa@n+3
  1683   002A5C  C005  F038         	movff	?___aodiv+4,dtoa@n+4
  1684   002A60  C006  F039         	movff	?___aodiv+5,dtoa@n+5
  1685   002A64  C007  F03A         	movff	?___aodiv+6,dtoa@n+6
  1686   002A68  C008  F03B         	movff	?___aodiv+7,dtoa@n+7
  1687   002A6C                     l2449:
  1688                           
  1689                           ;C:\Program Files\Microchip\xc8\v2.40\pic\sources\c99\common\doprnt.c: 482:     while (!
      +                          (i < 1) && (n || (0 < p)
  1690   002A6C  BE3D               	btfsc	(dtoa@i+1)^0,7,c
  1691   002A6E  EF41  F015         	goto	u2121
  1692   002A72  503D               	movf	(dtoa@i+1)^0,w,c
  1693   002A74  E108               	bnz	u2120
  1694   002A76  043C               	decf	dtoa@i^0,w,c
  1695   002A78  A0D8               	btfss	status,0,c
  1696   002A7A  EF41  F015         	goto	u2121
  1697   002A7E  EF43  F015         	goto	u2120
  1698   002A82                     u2121:
  1699   002A82  EF5F  F015         	goto	l2455
  1700   002A86                     u2120:
  1701   002A86  5034               	movf	dtoa@n^0,w,c
  1702   002A88  1035               	iorwf	(dtoa@n+1)^0,w,c
  1703   002A8A  1036               	iorwf	(dtoa@n+2)^0,w,c
  1704   002A8C  1037               	iorwf	(dtoa@n+3)^0,w,c
  1705   002A8E  1038               	iorwf	(dtoa@n+4)^0,w,c
  1706   002A90  1039               	iorwf	(dtoa@n+5)^0,w,c
  1707   002A92  103A               	iorwf	(dtoa@n+6)^0,w,c
  1708   002A94  103B               	iorwf	(dtoa@n+7)^0,w,c
  1709   002A96  A4D8               	btfss	status,2,c
  1710   002A98  EF50  F015         	goto	u2131
  1711   002A9C  EF52  F015         	goto	u2130
  1712   002AA0                     u2131:
  1713   002AA0  EFBA  F014         	goto	l2439
  1714   002AA4                     u2130:
  1715   002AA4  BE31               	btfsc	(dtoa@p+1)^0,7,c
  1716   002AA6  EF5F  F015         	goto	u2140
  1717   002AAA  5031               	movf	(dtoa@p+1)^0,w,c
  1718   002AAC  E106               	bnz	u2141
  1719   002AAE  0430               	decf	dtoa@p^0,w,c
  1720   002AB0  B0D8               	btfsc	status,0,c
  1721   002AB2  EF5D  F015         	goto	u2141
  1722   002AB6  EF5F  F015         	goto	u2140
  1723   002ABA                     u2141:
  1724   002ABA  EFBA  F014         	goto	l2439
  1725   002ABE                     u2140:
  1726   002ABE                     l2455:
  1727                           
  1728                           ;C:\Program Files\Microchip\xc8\v2.40\pic\sources\c99\common\doprnt.c: 495:     if (s !=
      +                           0) {
  1729   002ABE  503E               	movf	dtoa@s^0,w,c
  1730   002AC0  B4D8               	btfsc	status,2,c
  1731   002AC2  EF65  F015         	goto	u2151
  1732   002AC6  EF67  F015         	goto	u2150
  1733   002ACA                     u2151:
  1734   002ACA  EF72  F015         	goto	l2461
  1735   002ACE                     u2150:
  1736   002ACE                     
  1737                           ;C:\Program Files\Microchip\xc8\v2.40\pic\sources\c99\common\doprnt.c: 496:         --i;
  1738   002ACE  063C               	decf	dtoa@i^0,f,c
  1739   002AD0  A0D8               	btfss	status,0,c
  1740   002AD2  063D               	decf	(dtoa@i+1)^0,f,c
  1741   002AD4                     
  1742                           ;C:\Program Files\Microchip\xc8\v2.40\pic\sources\c99\common\doprnt.c: 497:         dbuf
      +                          [i] = s;
  1743   002AD4  0E5C               	movlw	low _dbuf
  1744   002AD6  243C               	addwf	dtoa@i^0,w,c
  1745   002AD8  6ED9               	movwf	fsr2l,c
  1746   002ADA  0E01               	movlw	high _dbuf
  1747   002ADC  203D               	addwfc	(dtoa@i+1)^0,w,c
  1748   002ADE  6EDA               	movwf	fsr2h,c
  1749   002AE0  C03E  FFDF         	movff	dtoa@s,indf2
  1750   002AE4                     l2461:
  1751                           
  1752                           ;C:\Program Files\Microchip\xc8\v2.40\pic\sources\c99\common\doprnt.c: 501:     return (
      +                          void) pad(fp, &dbuf[i], w);
  1753   002AE4  C01C  F011         	movff	dtoa@fp,pad@fp
  1754   002AE8  C01D  F012         	movff	dtoa@fp+1,pad@fp+1
  1755   002AEC  0E5C               	movlw	low _dbuf
  1756   002AEE  243C               	addwf	dtoa@i^0,w,c
  1757   002AF0  6E13               	movwf	pad@buf^0,c
  1758   002AF2  0E01               	movlw	high _dbuf
  1759   002AF4  203D               	addwfc	(dtoa@i+1)^0,w,c
  1760   002AF6  6E14               	movwf	(pad@buf+1)^0,c
  1761   002AF8  C032  F015         	movff	dtoa@w,pad@p
  1762   002AFC  C033  F016         	movff	dtoa@w+1,pad@p+1
  1763   002B00  EC33  F01A         	call	_pad	;wreg free
  1764   002B04  0012               	return		;funcret
  1765   002B06                     __end_of_dtoa:
  1766                           	callstack 0
  1767                           
  1768 ;; *************** function _pad *****************
  1769 ;; Defined at:
  1770 ;;		line 133 in file "C:\Program Files\Microchip\xc8\v2.40\pic\sources\c99\common\doprnt.c"
  1771 ;; Parameters:    Size  Location     Type
  1772 ;;  fp              2   16[COMRAM] PTR struct _IO_FILE
  1773 ;;		 -> sprintf@f(11), 
  1774 ;;  buf             2   18[COMRAM] PTR unsigned char 
  1775 ;;		 -> dbuf(32), 
  1776 ;;  p               2   20[COMRAM] int 
  1777 ;; Auto vars:     Size  Location     Type
  1778 ;;  w               2   25[COMRAM] int 
  1779 ;;  i               2   23[COMRAM] int 
  1780 ;; Return value:  Size  Location     Type
  1781 ;;                  1    wreg      void 
  1782 ;; Registers used:
  1783 ;;		wreg, fsr1l, fsr1h, fsr2l, fsr2h, status,2, status,0, cstack
  1784 ;; Tracked objects:
  1785 ;;		On entry : 0/0
  1786 ;;		On exit  : 0/0
  1787 ;;		Unchanged: 0/0
  1788 ;; Data sizes:     COMRAM   BANK0   BANK1   BANK2   BANK3   BANK4   BANK5   BANK6   BANK7   BANK8   BANK9  BANK10  BANK1
      +1  BANK12  BANK13
  1789 ;;      Params:         6       0       0       0       0       0       0       0       0       0       0       0       
      +0       0       0
  1790 ;;      Locals:         4       0       0       0       0       0       0       0       0       0       0       0       
      +0       0       0
  1791 ;;      Temps:          1       0       0       0       0       0       0       0       0       0       0       0       
      +0       0       0
  1792 ;;      Totals:        11       0       0       0       0       0       0       0       0       0       0       0       
      +0       0       0
  1793 ;;Total ram usage:       11 bytes
  1794 ;; Hardware stack levels used: 1
  1795 ;; Hardware stack levels required when called: 4
  1796 ;; This function calls:
  1797 ;;		_fputc
  1798 ;;		_fputs
  1799 ;; This function is called by:
  1800 ;;		_dtoa
  1801 ;; This function uses a non-reentrant model
  1802 ;;
  1803                           
  1804                           	psect	text5
  1805   003466                     __ptext5:
  1806                           	callstack 0
  1807   003466                     _pad:
  1808                           	callstack 22
  1809   003466                     
  1810                           ;C:\Program Files\Microchip\xc8\v2.40\pic\sources\c99\common\doprnt.c: 133: static void 
      +                          pad(FILE *fp, char *buf, int p);C:\Program Files\Microchip\xc8\v2.40\pic\sources\c99\com
      +                          mon\doprnt.c: 134: {;C:\Program Files\Microchip\xc8\v2.40\pic\sources\c99\common\doprnt.
      +                          c: 135:     int i, w;;C:\Program Files\Microchip\xc8\v2.40\pic\sources\c99\common\doprnt
      +                          .c: 145:     w = (p < 0) ? 0 : p;
  1811   003466  BE16               	btfsc	(pad@p+1)^0,7,c
  1812   003468  EF38  F01A         	goto	u2011
  1813   00346C  EF3A  F01A         	goto	u2010
  1814   003470                     u2011:
  1815   003470  EF40  F01A         	goto	l2395
  1816   003474                     u2010:
  1817   003474  C015  F01A         	movff	pad@p,pad@w
  1818   003478  C016  F01B         	movff	pad@p+1,pad@w+1
  1819   00347C  EF44  F01A         	goto	l1029
  1820   003480                     l2395:
  1821   003480  0E00               	movlw	0
  1822   003482  6E1B               	movwf	(pad@w+1)^0,c
  1823   003484  0E00               	movlw	0
  1824   003486  6E1A               	movwf	pad@w^0,c
  1825   003488                     l1029:
  1826                           
  1827                           ;C:\Program Files\Microchip\xc8\v2.40\pic\sources\c99\common\doprnt.c: 146:     i = 0;
  1828   003488  0E00               	movlw	0
  1829   00348A  6E19               	movwf	(pad@i+1)^0,c
  1830   00348C  0E00               	movlw	0
  1831   00348E  6E18               	movwf	pad@i^0,c
  1832                           
  1833                           ;C:\Program Files\Microchip\xc8\v2.40\pic\sources\c99\common\doprnt.c: 147:     while (i
      +                           < w) {
  1834   003490  EF56  F01A         	goto	l2401
  1835   003494                     l2397:
  1836                           
  1837                           ;C:\Program Files\Microchip\xc8\v2.40\pic\sources\c99\common\doprnt.c: 148:         fput
      +                          c(' ', fp);
  1838   003494  0E00               	movlw	0
  1839   003496  6E02               	movwf	(fputc@c+1)^0,c
  1840   003498  0E20               	movlw	32
  1841   00349A  6E01               	movwf	fputc@c^0,c
  1842   00349C  C011  F003         	movff	pad@fp,fputc@fp
  1843   0034A0  C012  F004         	movff	pad@fp+1,fputc@fp+1
  1844   0034A4  EC79  F019         	call	_fputc	;wreg free
  1845   0034A8                     
  1846                           ;C:\Program Files\Microchip\xc8\v2.40\pic\sources\c99\common\doprnt.c: 149:         ++i;
  1847   0034A8  4A18               	infsnz	pad@i^0,f,c
  1848   0034AA  2A19               	incf	(pad@i+1)^0,f,c
  1849   0034AC                     l2401:
  1850                           
  1851                           ;C:\Program Files\Microchip\xc8\v2.40\pic\sources\c99\common\doprnt.c: 147:     while (i
      +                           < w) {
  1852   0034AC  501A               	movf	pad@w^0,w,c
  1853   0034AE  5C18               	subwf	pad@i^0,w,c
  1854   0034B0  5019               	movf	(pad@i+1)^0,w,c
  1855   0034B2  0A80               	xorlw	128
  1856   0034B4  6E17               	movwf	??_pad^0,c
  1857   0034B6  501B               	movf	(pad@w+1)^0,w,c
  1858   0034B8  0A80               	xorlw	128
  1859   0034BA  5817               	subwfb	??_pad^0,w,c
  1860   0034BC  A0D8               	btfss	status,0,c
  1861   0034BE  EF63  F01A         	goto	u2021
  1862   0034C2  EF65  F01A         	goto	u2020
  1863   0034C6                     u2021:
  1864   0034C6  EF4A  F01A         	goto	l2397
  1865   0034CA                     u2020:
  1866   0034CA                     
  1867                           ;C:\Program Files\Microchip\xc8\v2.40\pic\sources\c99\common\doprnt.c: 156:         fput
      +                          s((const char *)buf, fp);
  1868   0034CA  C013  F00A         	movff	pad@buf,fputs@s
  1869   0034CE  C014  F00B         	movff	pad@buf+1,fputs@s+1
  1870   0034D2  C011  F00C         	movff	pad@fp,fputs@fp
  1871   0034D6  C012  F00D         	movff	pad@fp+1,fputs@fp+1
  1872   0034DA  EC0A  F01C         	call	_fputs	;wreg free
  1873   0034DE  0012               	return		;funcret
  1874   0034E0                     __end_of_pad:
  1875                           	callstack 0
  1876                           
  1877 ;; *************** function _fputs *****************
  1878 ;; Defined at:
  1879 ;;		line 8 in file "C:\Program Files\Microchip\xc8\v2.40\pic\sources\c99\common\nf_fputs.c"
  1880 ;; Parameters:    Size  Location     Type
  1881 ;;  s               2    9[COMRAM] PTR const unsigned char 
  1882 ;;		 -> dbuf(32), 
  1883 ;;  fp              2   11[COMRAM] PTR struct _IO_FILE
  1884 ;;		 -> sprintf@f(11), 
  1885 ;; Auto vars:     Size  Location     Type
  1886 ;;  i               2   14[COMRAM] int 
  1887 ;;  c               1   13[COMRAM] unsigned char 
  1888 ;; Return value:  Size  Location     Type
  1889 ;;                  2    9[COMRAM] int 
  1890 ;; Registers used:
  1891 ;;		wreg, fsr1l, fsr1h, fsr2l, fsr2h, status,2, status,0, cstack
  1892 ;; Tracked objects:
  1893 ;;		On entry : 0/0
  1894 ;;		On exit  : 0/0
  1895 ;;		Unchanged: 0/0
  1896 ;; Data sizes:     COMRAM   BANK0   BANK1   BANK2   BANK3   BANK4   BANK5   BANK6   BANK7   BANK8   BANK9  BANK10  BANK1
      +1  BANK12  BANK13
  1897 ;;      Params:         4       0       0       0       0       0       0       0       0       0       0       0       
      +0       0       0
  1898 ;;      Locals:         3       0       0       0       0       0       0       0       0       0       0       0       
      +0       0       0
  1899 ;;      Temps:          0       0       0       0       0       0       0       0       0       0       0       0       
      +0       0       0
  1900 ;;      Totals:         7       0       0       0       0       0       0       0       0       0       0       0       
      +0       0       0
  1901 ;;Total ram usage:        7 bytes
  1902 ;; Hardware stack levels used: 1
  1903 ;; Hardware stack levels required when called: 3
  1904 ;; This function calls:
  1905 ;;		_fputc
  1906 ;; This function is called by:
  1907 ;;		_pad
  1908 ;; This function uses a non-reentrant model
  1909 ;;
  1910                           
  1911                           	psect	text6
  1912   003814                     __ptext6:
  1913                           	callstack 0
  1914   003814                     _fputs:
  1915                           	callstack 22
  1916   003814  0E00               	movlw	0
  1917   003816  6E10               	movwf	(fputs@i+1)^0,c
  1918   003818  0E00               	movlw	0
  1919   00381A  6E0F               	movwf	fputs@i^0,c
  1920   00381C  EF1B  F01C         	goto	l2309
  1921   003820                     l2305:
  1922   003820  C00E  F001         	movff	fputs@c,fputc@c
  1923   003824  6A02               	clrf	(fputc@c+1)^0,c
  1924   003826  C00C  F003         	movff	fputs@fp,fputc@fp
  1925   00382A  C00D  F004         	movff	fputs@fp+1,fputc@fp+1
  1926   00382E  EC79  F019         	call	_fputc	;wreg free
  1927   003832  4A0F               	infsnz	fputs@i^0,f,c
  1928   003834  2A10               	incf	(fputs@i+1)^0,f,c
  1929   003836                     l2309:
  1930   003836  500F               	movf	fputs@i^0,w,c
  1931   003838  240A               	addwf	fputs@s^0,w,c
  1932   00383A  6ED9               	movwf	fsr2l,c
  1933   00383C  5010               	movf	(fputs@i+1)^0,w,c
  1934   00383E  200B               	addwfc	(fputs@s+1)^0,w,c
  1935   003840  6EDA               	movwf	fsr2h,c
  1936   003842  50DF               	movf	indf2,w,c
  1937   003844  6E0E               	movwf	fputs@c^0,c
  1938   003846  500E               	movf	fputs@c^0,w,c
  1939   003848  A4D8               	btfss	status,2,c
  1940   00384A  EF29  F01C         	goto	u1871
  1941   00384E  EF2B  F01C         	goto	u1870
  1942   003852                     u1871:
  1943   003852  EF10  F01C         	goto	l2305
  1944   003856                     u1870:
  1945   003856  0012               	return		;funcret
  1946   003858                     __end_of_fputs:
  1947                           	callstack 0
  1948                           
  1949 ;; *************** function _fputc *****************
  1950 ;; Defined at:
  1951 ;;		line 8 in file "C:\Program Files\Microchip\xc8\v2.40\pic\sources\c99\common\nf_fputc.c"
  1952 ;; Parameters:    Size  Location     Type
  1953 ;;  c               2    0[COMRAM] int 
  1954 ;;  fp              2    2[COMRAM] PTR struct _IO_FILE
  1955 ;;		 -> sprintf@f(11), 
  1956 ;; Auto vars:     Size  Location     Type
  1957 ;;		None
  1958 ;; Return value:  Size  Location     Type
  1959 ;;                  2    0[COMRAM] int 
  1960 ;; Registers used:
  1961 ;;		wreg, fsr1l, fsr1h, fsr2l, fsr2h, status,2, status,0, cstack
  1962 ;; Tracked objects:
  1963 ;;		On entry : 0/0
  1964 ;;		On exit  : 0/0
  1965 ;;		Unchanged: 0/0
  1966 ;; Data sizes:     COMRAM   BANK0   BANK1   BANK2   BANK3   BANK4   BANK5   BANK6   BANK7   BANK8   BANK9  BANK10  BANK1
      +1  BANK12  BANK13
  1967 ;;      Params:         4       0       0       0       0       0       0       0       0       0       0       0       
      +0       0       0
  1968 ;;      Locals:         0       0       0       0       0       0       0       0       0       0       0       0       
      +0       0       0
  1969 ;;      Temps:          5       0       0       0       0       0       0       0       0       0       0       0       
      +0       0       0
  1970 ;;      Totals:         9       0       0       0       0       0       0       0       0       0       0       0       
      +0       0       0
  1971 ;;Total ram usage:        9 bytes
  1972 ;; Hardware stack levels used: 1
  1973 ;; Hardware stack levels required when called: 2
  1974 ;; This function calls:
  1975 ;;		_putch
  1976 ;; This function is called by:
  1977 ;;		_pad
  1978 ;;		_vfpfcnvrt
  1979 ;;		_fputs
  1980 ;; This function uses a non-reentrant model
  1981 ;;
  1982                           
  1983                           	psect	text7
  1984   0032F2                     __ptext7:
  1985                           	callstack 0
  1986   0032F2                     _fputc:
  1987                           	callstack 25
  1988   0032F2  5003               	movf	fputc@fp^0,w,c
  1989   0032F4  1004               	iorwf	(fputc@fp+1)^0,w,c
  1990   0032F6  B4D8               	btfsc	status,2,c
  1991   0032F8  EF80  F019         	goto	u1831
  1992   0032FC  EF82  F019         	goto	u1830
  1993   003300                     u1831:
  1994   003300  EF8B  F019         	goto	l2293
  1995   003304                     u1830:
  1996   003304  5003               	movf	fputc@fp^0,w,c
  1997   003306  1004               	iorwf	(fputc@fp+1)^0,w,c
  1998   003308  A4D8               	btfss	status,2,c
  1999   00330A  EF89  F019         	goto	u1841
  2000   00330E  EF8B  F019         	goto	u1840
  2001   003312                     u1841:
  2002   003312  EF90  F019         	goto	l2295
  2003   003316                     u1840:
  2004   003316                     l2293:
  2005   003316  5001               	movf	fputc@c^0,w,c
  2006   003318  ECEF  F01C         	call	_putch
  2007   00331C  EFDD  F019         	goto	l1084
  2008   003320                     l2295:
  2009   003320  EE20 F009          	lfsr	2,9
  2010   003324  5003               	movf	fputc@fp^0,w,c
  2011   003326  26D9               	addwf	fsr2l,f,c
  2012   003328  5004               	movf	(fputc@fp+1)^0,w,c
  2013   00332A  22DA               	addwfc	fsr2h,f,c
  2014   00332C  50DE               	movf	postinc2,w,c
  2015   00332E  10DE               	iorwf	postinc2,w,c
  2016   003330  B4D8               	btfsc	status,2,c
  2017   003332  EF9D  F019         	goto	u1851
  2018   003336  EF9F  F019         	goto	u1850
  2019   00333A                     u1851:
  2020   00333A  EFBA  F019         	goto	l2299
  2021   00333E                     u1850:
  2022   00333E  EE20 F009          	lfsr	2,9
  2023   003342  5003               	movf	fputc@fp^0,w,c
  2024   003344  26D9               	addwf	fsr2l,f,c
  2025   003346  5004               	movf	(fputc@fp+1)^0,w,c
  2026   003348  22DA               	addwfc	fsr2h,f,c
  2027   00334A  EE10 F003          	lfsr	1,3
  2028   00334E  5003               	movf	fputc@fp^0,w,c
  2029   003350  26E1               	addwf	fsr1l,f,c
  2030   003352  5004               	movf	(fputc@fp+1)^0,w,c
  2031   003354  22E2               	addwfc	fsr1h,f,c
  2032   003356  50DE               	movf	postinc2,w,c
  2033   003358  5CE6               	subwf	postinc1,w,c
  2034   00335A  50E6               	movf	postinc1,w,c
  2035   00335C  0A80               	xorlw	128
  2036   00335E  6E09               	movwf	(??_fputc+4)^0,c
  2037   003360  50DE               	movf	postinc2,w,c
  2038   003362  0A80               	xorlw	128
  2039   003364  5809               	subwfb	(??_fputc+4)^0,w,c
  2040   003366  B0D8               	btfsc	status,0,c
  2041   003368  EFB8  F019         	goto	u1861
  2042   00336C  EFBA  F019         	goto	u1860
  2043   003370                     u1861:
  2044   003370  EFDD  F019         	goto	l1084
  2045   003374                     u1860:
  2046   003374                     l2299:
  2047   003374  EE20 F003          	lfsr	2,3
  2048   003378  5003               	movf	fputc@fp^0,w,c
  2049   00337A  26D9               	addwf	fsr2l,f,c
  2050   00337C  5004               	movf	(fputc@fp+1)^0,w,c
  2051   00337E  22DA               	addwfc	fsr2h,f,c
  2052   003380  CFDE F005          	movff	postinc2,??_fputc
  2053   003384  CFDD F006          	movff	postdec2,??_fputc+1
  2054   003388  C003  FFD9         	movff	fputc@fp,fsr2l
  2055   00338C  C004  FFDA         	movff	fputc@fp+1,fsr2h
  2056   003390  CFDE F007          	movff	postinc2,??_fputc+2
  2057   003394  CFDD F008          	movff	postdec2,??_fputc+3
  2058   003398  5005               	movf	??_fputc^0,w,c
  2059   00339A  2407               	addwf	(??_fputc+2)^0,w,c
  2060   00339C  6ED9               	movwf	fsr2l,c
  2061   00339E  5006               	movf	(??_fputc+1)^0,w,c
  2062   0033A0  2008               	addwfc	(??_fputc+3)^0,w,c
  2063   0033A2  6EDA               	movwf	fsr2h,c
  2064   0033A4  C001  FFDF         	movff	fputc@c,indf2
  2065   0033A8  EE20 F003          	lfsr	2,3
  2066   0033AC  5003               	movf	fputc@fp^0,w,c
  2067   0033AE  26D9               	addwf	fsr2l,f,c
  2068   0033B0  5004               	movf	(fputc@fp+1)^0,w,c
  2069   0033B2  22DA               	addwfc	fsr2h,f,c
  2070   0033B4  2ADE               	incf	postinc2,f,c
  2071   0033B6  0E00               	movlw	0
  2072   0033B8  22DD               	addwfc	postdec2,f,c
  2073   0033BA                     l1084:
  2074   0033BA  0012               	return		;funcret
  2075   0033BC                     __end_of_fputc:
  2076                           	callstack 0
  2077                           
  2078 ;; *************** function _putch *****************
  2079 ;; Defined at:
  2080 ;;		line 7 in file "C:\Program Files\Microchip\xc8\v2.40\pic\sources\c99\common\putch.c"
  2081 ;; Parameters:    Size  Location     Type
  2082 ;;  c               1    wreg     unsigned char 
  2083 ;; Auto vars:     Size  Location     Type
  2084 ;;  c               1    0[COMRAM] unsigned char 
  2085 ;; Return value:  Size  Location     Type
  2086 ;;                  1    wreg      void 
  2087 ;; Registers used:
  2088 ;;		wreg
  2089 ;; Tracked objects:
  2090 ;;		On entry : 0/0
  2091 ;;		On exit  : 0/0
  2092 ;;		Unchanged: 0/0
  2093 ;; Data sizes:     COMRAM   BANK0   BANK1   BANK2   BANK3   BANK4   BANK5   BANK6   BANK7   BANK8   BANK9  BANK10  BANK1
      +1  BANK12  BANK13
  2094 ;;      Params:         0       0       0       0       0       0       0       0       0       0       0       0       
      +0       0       0
  2095 ;;      Locals:         0       0       0       0       0       0       0       0       0       0       0       0       
      +0       0       0
  2096 ;;      Temps:          0       0       0       0       0       0       0       0       0       0       0       0       
      +0       0       0
  2097 ;;      Totals:         0       0       0       0       0       0       0       0       0       0       0       0       
      +0       0       0
  2098 ;;Total ram usage:        0 bytes
  2099 ;; Hardware stack levels used: 1
  2100 ;; Hardware stack levels required when called: 1
  2101 ;; This function calls:
  2102 ;;		Nothing
  2103 ;; This function is called by:
  2104 ;;		_fputc
  2105 ;; This function uses a non-reentrant model
  2106 ;;
  2107                           
  2108                           	psect	text8
  2109   0039DE                     __ptext8:
  2110                           	callstack 0
  2111   0039DE                     _putch:
  2112                           	callstack 25
  2113   0039DE  0012               	return		;funcret
  2114   0039E0                     __end_of_putch:
  2115                           	callstack 0
  2116                           
  2117 ;; *************** function _abs *****************
  2118 ;; Defined at:
  2119 ;;		line 1 in file "C:\Program Files\Microchip\xc8\v2.40\pic\sources\c99\common\abs.c"
  2120 ;; Parameters:    Size  Location     Type
  2121 ;;  a               2   18[COMRAM] int 
  2122 ;; Auto vars:     Size  Location     Type
  2123 ;;		None
  2124 ;; Return value:  Size  Location     Type
  2125 ;;                  2   18[COMRAM] int 
  2126 ;; Registers used:
  2127 ;;		wreg, status,2, status,0
  2128 ;; Tracked objects:
  2129 ;;		On entry : 0/0
  2130 ;;		On exit  : 0/0
  2131 ;;		Unchanged: 0/0
  2132 ;; Data sizes:     COMRAM   BANK0   BANK1   BANK2   BANK3   BANK4   BANK5   BANK6   BANK7   BANK8   BANK9  BANK10  BANK1
      +1  BANK12  BANK13
  2133 ;;      Params:         2       0       0       0       0       0       0       0       0       0       0       0       
      +0       0       0
  2134 ;;      Locals:         0       0       0       0       0       0       0       0       0       0       0       0       
      +0       0       0
  2135 ;;      Temps:          2       0       0       0       0       0       0       0       0       0       0       0       
      +0       0       0
  2136 ;;      Totals:         4       0       0       0       0       0       0       0       0       0       0       0       
      +0       0       0
  2137 ;;Total ram usage:        4 bytes
  2138 ;; Hardware stack levels used: 1
  2139 ;; Hardware stack levels required when called: 1
  2140 ;; This function calls:
  2141 ;;		Nothing
  2142 ;; This function is called by:
  2143 ;;		_dtoa
  2144 ;; This function uses a non-reentrant model
  2145 ;;
  2146                           
  2147                           	psect	text9
  2148   00389A                     __ptext9:
  2149                           	callstack 0
  2150   00389A                     _abs:
  2151                           	callstack 25
  2152   00389A  BE14               	btfsc	(abs@a+1)^0,7,c
  2153   00389C  EF5A  F01C         	goto	u2030
  2154   0038A0  5014               	movf	(abs@a+1)^0,w,c
  2155   0038A2  E106               	bnz	u2031
  2156   0038A4  0413               	decf	abs@a^0,w,c
  2157   0038A6  B0D8               	btfsc	status,0,c
  2158   0038A8  EF58  F01C         	goto	u2031
  2159   0038AC  EF5A  F01C         	goto	u2030
  2160   0038B0                     u2031:
  2161   0038B0  EF68  F01C         	goto	l1069
  2162   0038B4                     u2030:
  2163   0038B4  C013  F015         	movff	abs@a,??_abs
  2164   0038B8  C014  F016         	movff	abs@a+1,??_abs+1
  2165   0038BC  1E15               	comf	??_abs^0,f,c
  2166   0038BE  1E16               	comf	(??_abs+1)^0,f,c
  2167   0038C0  4A15               	infsnz	??_abs^0,f,c
  2168   0038C2  2A16               	incf	(??_abs+1)^0,f,c
  2169   0038C4  C015  F013         	movff	??_abs,?_abs
  2170   0038C8  C016  F014         	movff	??_abs+1,?_abs+1
  2171   0038CC  EF6C  F01C         	goto	l1072
  2172   0038D0                     l1069:
  2173   0038D0  C013  F013         	movff	abs@a,?_abs
  2174   0038D4  C014  F014         	movff	abs@a+1,?_abs+1
  2175   0038D8                     l1072:
  2176   0038D8  0012               	return		;funcret
  2177   0038DA                     __end_of_abs:
  2178                           	callstack 0
  2179                           
  2180 ;; *************** function ___aomod *****************
  2181 ;; Defined at:
  2182 ;;		line 9 in file "C:\Program Files\Microchip\xc8\v2.40\pic\sources\c99\common\aomod.c"
  2183 ;; Parameters:    Size  Location     Type
  2184 ;;  dividend        8    0[COMRAM] long long 
  2185 ;;  divisor         8    8[COMRAM] long long 
  2186 ;; Auto vars:     Size  Location     Type
  2187 ;;  sign            1   17[COMRAM] unsigned char 
  2188 ;;  counter         1   16[COMRAM] unsigned char 
  2189 ;; Return value:  Size  Location     Type
  2190 ;;                  8    0[COMRAM] long long 
  2191 ;; Registers used:
  2192 ;;		wreg, status,2, status,0
  2193 ;; Tracked objects:
  2194 ;;		On entry : 0/0
  2195 ;;		On exit  : 0/0
  2196 ;;		Unchanged: 0/0
  2197 ;; Data sizes:     COMRAM   BANK0   BANK1   BANK2   BANK3   BANK4   BANK5   BANK6   BANK7   BANK8   BANK9  BANK10  BANK1
      +1  BANK12  BANK13
  2198 ;;      Params:        16       0       0       0       0       0       0       0       0       0       0       0       
      +0       0       0
  2199 ;;      Locals:         2       0       0       0       0       0       0       0       0       0       0       0       
      +0       0       0
  2200 ;;      Temps:          0       0       0       0       0       0       0       0       0       0       0       0       
      +0       0       0
  2201 ;;      Totals:        18       0       0       0       0       0       0       0       0       0       0       0       
      +0       0       0
  2202 ;;Total ram usage:       18 bytes
  2203 ;; Hardware stack levels used: 1
  2204 ;; Hardware stack levels required when called: 1
  2205 ;; This function calls:
  2206 ;;		Nothing
  2207 ;; This function is called by:
  2208 ;;		_dtoa
  2209 ;; This function uses a non-reentrant model
  2210 ;;
  2211                           
  2212                           	psect	text10
  2213   002E42                     __ptext10:
  2214                           	callstack 0
  2215   002E42                     ___aomod:
  2216                           	callstack 25
  2217   002E42  0E00               	movlw	0
  2218   002E44  6E12               	movwf	___aomod@sign^0,c
  2219   002E46  BE08               	btfsc	(___aomod@dividend+7)^0,7,c
  2220   002E48  EF2A  F017         	goto	u1950
  2221   002E4C  EF28  F017         	goto	u1951
  2222   002E50                     u1951:
  2223   002E50  EF3C  F017         	goto	l2363
  2224   002E54                     u1950:
  2225   002E54  1E08               	comf	(___aomod@dividend+7)^0,f,c
  2226   002E56  1E07               	comf	(___aomod@dividend+6)^0,f,c
  2227   002E58  1E06               	comf	(___aomod@dividend+5)^0,f,c
  2228   002E5A  1E05               	comf	(___aomod@dividend+4)^0,f,c
  2229   002E5C  1E04               	comf	(___aomod@dividend+3)^0,f,c
  2230   002E5E  1E03               	comf	(___aomod@dividend+2)^0,f,c
  2231   002E60  1E02               	comf	(___aomod@dividend+1)^0,f,c
  2232   002E62  6C01               	negf	___aomod@dividend^0,c
  2233   002E64  0E00               	movlw	0
  2234   002E66  2202               	addwfc	(___aomod@dividend+1)^0,f,c
  2235   002E68  2203               	addwfc	(___aomod@dividend+2)^0,f,c
  2236   002E6A  2204               	addwfc	(___aomod@dividend+3)^0,f,c
  2237   002E6C  2205               	addwfc	(___aomod@dividend+4)^0,f,c
  2238   002E6E  2206               	addwfc	(___aomod@dividend+5)^0,f,c
  2239   002E70  2207               	addwfc	(___aomod@dividend+6)^0,f,c
  2240   002E72  2208               	addwfc	(___aomod@dividend+7)^0,f,c
  2241   002E74  0E01               	movlw	1
  2242   002E76  6E12               	movwf	___aomod@sign^0,c
  2243   002E78                     l2363:
  2244   002E78  BE10               	btfsc	(___aomod@divisor+7)^0,7,c
  2245   002E7A  EF43  F017         	goto	u1960
  2246   002E7E  EF41  F017         	goto	u1961
  2247   002E82                     u1961:
  2248   002E82  EF53  F017         	goto	l2367
  2249   002E86                     u1960:
  2250   002E86  1E10               	comf	(___aomod@divisor+7)^0,f,c
  2251   002E88  1E0F               	comf	(___aomod@divisor+6)^0,f,c
  2252   002E8A  1E0E               	comf	(___aomod@divisor+5)^0,f,c
  2253   002E8C  1E0D               	comf	(___aomod@divisor+4)^0,f,c
  2254   002E8E  1E0C               	comf	(___aomod@divisor+3)^0,f,c
  2255   002E90  1E0B               	comf	(___aomod@divisor+2)^0,f,c
  2256   002E92  1E0A               	comf	(___aomod@divisor+1)^0,f,c
  2257   002E94  6C09               	negf	___aomod@divisor^0,c
  2258   002E96  0E00               	movlw	0
  2259   002E98  220A               	addwfc	(___aomod@divisor+1)^0,f,c
  2260   002E9A  220B               	addwfc	(___aomod@divisor+2)^0,f,c
  2261   002E9C  220C               	addwfc	(___aomod@divisor+3)^0,f,c
  2262   002E9E  220D               	addwfc	(___aomod@divisor+4)^0,f,c
  2263   002EA0  220E               	addwfc	(___aomod@divisor+5)^0,f,c
  2264   002EA2  220F               	addwfc	(___aomod@divisor+6)^0,f,c
  2265   002EA4  2210               	addwfc	(___aomod@divisor+7)^0,f,c
  2266   002EA6                     l2367:
  2267   002EA6  5009               	movf	___aomod@divisor^0,w,c
  2268   002EA8  100A               	iorwf	(___aomod@divisor+1)^0,w,c
  2269   002EAA  100B               	iorwf	(___aomod@divisor+2)^0,w,c
  2270   002EAC  100C               	iorwf	(___aomod@divisor+3)^0,w,c
  2271   002EAE  100D               	iorwf	(___aomod@divisor+4)^0,w,c
  2272   002EB0  100E               	iorwf	(___aomod@divisor+5)^0,w,c
  2273   002EB2  100F               	iorwf	(___aomod@divisor+6)^0,w,c
  2274   002EB4  1010               	iorwf	(___aomod@divisor+7)^0,w,c
  2275   002EB6  B4D8               	btfsc	status,2,c
  2276   002EB8  EF60  F017         	goto	u1971
  2277   002EBC  EF62  F017         	goto	u1970
  2278   002EC0                     u1971:
  2279   002EC0  EFAA  F017         	goto	l2383
  2280   002EC4                     u1970:
  2281   002EC4  0E01               	movlw	1
  2282   002EC6  6E11               	movwf	___aomod@counter^0,c
  2283   002EC8  EF70  F017         	goto	l2373
  2284   002ECC                     l2371:
  2285   002ECC  90D8               	bcf	status,0,c
  2286   002ECE  3609               	rlcf	___aomod@divisor^0,f,c
  2287   002ED0  360A               	rlcf	(___aomod@divisor+1)^0,f,c
  2288   002ED2  360B               	rlcf	(___aomod@divisor+2)^0,f,c
  2289   002ED4  360C               	rlcf	(___aomod@divisor+3)^0,f,c
  2290   002ED6  360D               	rlcf	(___aomod@divisor+4)^0,f,c
  2291   002ED8  360E               	rlcf	(___aomod@divisor+5)^0,f,c
  2292   002EDA  360F               	rlcf	(___aomod@divisor+6)^0,f,c
  2293   002EDC  3610               	rlcf	(___aomod@divisor+7)^0,f,c
  2294   002EDE  2A11               	incf	___aomod@counter^0,f,c
  2295   002EE0                     l2373:
  2296   002EE0  AE10               	btfss	(___aomod@divisor+7)^0,7,c
  2297   002EE2  EF75  F017         	goto	u1981
  2298   002EE6  EF77  F017         	goto	u1980
  2299   002EEA                     u1981:
  2300   002EEA  EF66  F017         	goto	l2371
  2301   002EEE                     u1980:
  2302   002EEE                     l2375:
  2303   002EEE  5009               	movf	___aomod@divisor^0,w,c
  2304   002EF0  5C01               	subwf	___aomod@dividend^0,w,c
  2305   002EF2  500A               	movf	(___aomod@divisor+1)^0,w,c
  2306   002EF4  5802               	subwfb	(___aomod@dividend+1)^0,w,c
  2307   002EF6  500B               	movf	(___aomod@divisor+2)^0,w,c
  2308   002EF8  5803               	subwfb	(___aomod@dividend+2)^0,w,c
  2309   002EFA  500C               	movf	(___aomod@divisor+3)^0,w,c
  2310   002EFC  5804               	subwfb	(___aomod@dividend+3)^0,w,c
  2311   002EFE  500D               	movf	(___aomod@divisor+4)^0,w,c
  2312   002F00  5805               	subwfb	(___aomod@dividend+4)^0,w,c
  2313   002F02  500E               	movf	(___aomod@divisor+5)^0,w,c
  2314   002F04  5806               	subwfb	(___aomod@dividend+5)^0,w,c
  2315   002F06  500F               	movf	(___aomod@divisor+6)^0,w,c
  2316   002F08  5807               	subwfb	(___aomod@dividend+6)^0,w,c
  2317   002F0A  5010               	movf	(___aomod@divisor+7)^0,w,c
  2318   002F0C  5808               	subwfb	(___aomod@dividend+7)^0,w,c
  2319   002F0E  A0D8               	btfss	status,0,c
  2320   002F10  EF8C  F017         	goto	u1991
  2321   002F14  EF8E  F017         	goto	u1990
  2322   002F18                     u1991:
  2323   002F18  EF9E  F017         	goto	l2379
  2324   002F1C                     u1990:
  2325   002F1C  5009               	movf	___aomod@divisor^0,w,c
  2326   002F1E  5E01               	subwf	___aomod@dividend^0,f,c
  2327   002F20  500A               	movf	(___aomod@divisor+1)^0,w,c
  2328   002F22  5A02               	subwfb	(___aomod@dividend+1)^0,f,c
  2329   002F24  500B               	movf	(___aomod@divisor+2)^0,w,c
  2330   002F26  5A03               	subwfb	(___aomod@dividend+2)^0,f,c
  2331   002F28  500C               	movf	(___aomod@divisor+3)^0,w,c
  2332   002F2A  5A04               	subwfb	(___aomod@dividend+3)^0,f,c
  2333   002F2C  500D               	movf	(___aomod@divisor+4)^0,w,c
  2334   002F2E  5A05               	subwfb	(___aomod@dividend+4)^0,f,c
  2335   002F30  500E               	movf	(___aomod@divisor+5)^0,w,c
  2336   002F32  5A06               	subwfb	(___aomod@dividend+5)^0,f,c
  2337   002F34  500F               	movf	(___aomod@divisor+6)^0,w,c
  2338   002F36  5A07               	subwfb	(___aomod@dividend+6)^0,f,c
  2339   002F38  5010               	movf	(___aomod@divisor+7)^0,w,c
  2340   002F3A  5A08               	subwfb	(___aomod@dividend+7)^0,f,c
  2341   002F3C                     l2379:
  2342   002F3C  90D8               	bcf	status,0,c
  2343   002F3E  3210               	rrcf	(___aomod@divisor+7)^0,f,c
  2344   002F40  320F               	rrcf	(___aomod@divisor+6)^0,f,c
  2345   002F42  320E               	rrcf	(___aomod@divisor+5)^0,f,c
  2346   002F44  320D               	rrcf	(___aomod@divisor+4)^0,f,c
  2347   002F46  320C               	rrcf	(___aomod@divisor+3)^0,f,c
  2348   002F48  320B               	rrcf	(___aomod@divisor+2)^0,f,c
  2349   002F4A  320A               	rrcf	(___aomod@divisor+1)^0,f,c
  2350   002F4C  3209               	rrcf	___aomod@divisor^0,f,c
  2351   002F4E  2E11               	decfsz	___aomod@counter^0,f,c
  2352   002F50  EF77  F017         	goto	l2375
  2353   002F54                     l2383:
  2354   002F54  5012               	movf	___aomod@sign^0,w,c
  2355   002F56  B4D8               	btfsc	status,2,c
  2356   002F58  EFB0  F017         	goto	u2001
  2357   002F5C  EFB2  F017         	goto	u2000
  2358   002F60                     u2001:
  2359   002F60  EFC2  F017         	goto	l2387
  2360   002F64                     u2000:
  2361   002F64  1E08               	comf	(___aomod@dividend+7)^0,f,c
  2362   002F66  1E07               	comf	(___aomod@dividend+6)^0,f,c
  2363   002F68  1E06               	comf	(___aomod@dividend+5)^0,f,c
  2364   002F6A  1E05               	comf	(___aomod@dividend+4)^0,f,c
  2365   002F6C  1E04               	comf	(___aomod@dividend+3)^0,f,c
  2366   002F6E  1E03               	comf	(___aomod@dividend+2)^0,f,c
  2367   002F70  1E02               	comf	(___aomod@dividend+1)^0,f,c
  2368   002F72  6C01               	negf	___aomod@dividend^0,c
  2369   002F74  0E00               	movlw	0
  2370   002F76  2202               	addwfc	(___aomod@dividend+1)^0,f,c
  2371   002F78  2203               	addwfc	(___aomod@dividend+2)^0,f,c
  2372   002F7A  2204               	addwfc	(___aomod@dividend+3)^0,f,c
  2373   002F7C  2205               	addwfc	(___aomod@dividend+4)^0,f,c
  2374   002F7E  2206               	addwfc	(___aomod@dividend+5)^0,f,c
  2375   002F80  2207               	addwfc	(___aomod@dividend+6)^0,f,c
  2376   002F82  2208               	addwfc	(___aomod@dividend+7)^0,f,c
  2377   002F84                     l2387:
  2378   002F84  C001  F001         	movff	___aomod@dividend,?___aomod
  2379   002F88  C002  F002         	movff	___aomod@dividend+1,?___aomod+1
  2380   002F8C  C003  F003         	movff	___aomod@dividend+2,?___aomod+2
  2381   002F90  C004  F004         	movff	___aomod@dividend+3,?___aomod+3
  2382   002F94  C005  F005         	movff	___aomod@dividend+4,?___aomod+4
  2383   002F98  C006  F006         	movff	___aomod@dividend+5,?___aomod+5
  2384   002F9C  C007  F007         	movff	___aomod@dividend+6,?___aomod+6
  2385   002FA0  C008  F008         	movff	___aomod@dividend+7,?___aomod+7
  2386   002FA4  0012               	return		;funcret
  2387   002FA6                     __end_of___aomod:
  2388                           	callstack 0
  2389                           
  2390 ;; *************** function ___aodiv *****************
  2391 ;; Defined at:
  2392 ;;		line 9 in file "C:\Program Files\Microchip\xc8\v2.40\pic\sources\c99\common\aodiv.c"
  2393 ;; Parameters:    Size  Location     Type
  2394 ;;  dividend        8    0[COMRAM] long long 
  2395 ;;  divisor         8    8[COMRAM] long long 
  2396 ;; Auto vars:     Size  Location     Type
  2397 ;;  quotient        8   18[COMRAM] long long 
  2398 ;;  sign            1   17[COMRAM] unsigned char 
  2399 ;;  counter         1   16[COMRAM] unsigned char 
  2400 ;; Return value:  Size  Location     Type
  2401 ;;                  8    0[COMRAM] long long 
  2402 ;; Registers used:
  2403 ;;		wreg, fsr2l, fsr2h, status,2, status,0
  2404 ;; Tracked objects:
  2405 ;;		On entry : 0/0
  2406 ;;		On exit  : 0/0
  2407 ;;		Unchanged: 0/0
  2408 ;; Data sizes:     COMRAM   BANK0   BANK1   BANK2   BANK3   BANK4   BANK5   BANK6   BANK7   BANK8   BANK9  BANK10  BANK1
      +1  BANK12  BANK13
  2409 ;;      Params:        16       0       0       0       0       0       0       0       0       0       0       0       
      +0       0       0
  2410 ;;      Locals:        10       0       0       0       0       0       0       0       0       0       0       0       
      +0       0       0
  2411 ;;      Temps:          0       0       0       0       0       0       0       0       0       0       0       0       
      +0       0       0
  2412 ;;      Totals:        26       0       0       0       0       0       0       0       0       0       0       0       
      +0       0       0
  2413 ;;Total ram usage:       26 bytes
  2414 ;; Hardware stack levels used: 1
  2415 ;; Hardware stack levels required when called: 1
  2416 ;; This function calls:
  2417 ;;		Nothing
  2418 ;; This function is called by:
  2419 ;;		_dtoa
  2420 ;; This function uses a non-reentrant model
  2421 ;;
  2422                           
  2423                           	psect	text11
  2424   002CBA                     __ptext11:
  2425                           	callstack 0
  2426   002CBA                     ___aodiv:
  2427                           	callstack 25
  2428   002CBA  0E00               	movlw	0
  2429   002CBC  6E12               	movwf	___aodiv@sign^0,c
  2430   002CBE  BE10               	btfsc	(___aodiv@divisor+7)^0,7,c
  2431   002CC0  EF66  F016         	goto	u1880
  2432   002CC4  EF64  F016         	goto	u1881
  2433   002CC8                     u1881:
  2434   002CC8  EF78  F016         	goto	l2319
  2435   002CCC                     u1880:
  2436   002CCC  1E10               	comf	(___aodiv@divisor+7)^0,f,c
  2437   002CCE  1E0F               	comf	(___aodiv@divisor+6)^0,f,c
  2438   002CD0  1E0E               	comf	(___aodiv@divisor+5)^0,f,c
  2439   002CD2  1E0D               	comf	(___aodiv@divisor+4)^0,f,c
  2440   002CD4  1E0C               	comf	(___aodiv@divisor+3)^0,f,c
  2441   002CD6  1E0B               	comf	(___aodiv@divisor+2)^0,f,c
  2442   002CD8  1E0A               	comf	(___aodiv@divisor+1)^0,f,c
  2443   002CDA  6C09               	negf	___aodiv@divisor^0,c
  2444   002CDC  0E00               	movlw	0
  2445   002CDE  220A               	addwfc	(___aodiv@divisor+1)^0,f,c
  2446   002CE0  220B               	addwfc	(___aodiv@divisor+2)^0,f,c
  2447   002CE2  220C               	addwfc	(___aodiv@divisor+3)^0,f,c
  2448   002CE4  220D               	addwfc	(___aodiv@divisor+4)^0,f,c
  2449   002CE6  220E               	addwfc	(___aodiv@divisor+5)^0,f,c
  2450   002CE8  220F               	addwfc	(___aodiv@divisor+6)^0,f,c
  2451   002CEA  2210               	addwfc	(___aodiv@divisor+7)^0,f,c
  2452   002CEC  0E01               	movlw	1
  2453   002CEE  6E12               	movwf	___aodiv@sign^0,c
  2454   002CF0                     l2319:
  2455   002CF0  BE08               	btfsc	(___aodiv@dividend+7)^0,7,c
  2456   002CF2  EF7F  F016         	goto	u1890
  2457   002CF6  EF7D  F016         	goto	u1891
  2458   002CFA                     u1891:
  2459   002CFA  EF91  F016         	goto	l2325
  2460   002CFE                     u1890:
  2461   002CFE  1E08               	comf	(___aodiv@dividend+7)^0,f,c
  2462   002D00  1E07               	comf	(___aodiv@dividend+6)^0,f,c
  2463   002D02  1E06               	comf	(___aodiv@dividend+5)^0,f,c
  2464   002D04  1E05               	comf	(___aodiv@dividend+4)^0,f,c
  2465   002D06  1E04               	comf	(___aodiv@dividend+3)^0,f,c
  2466   002D08  1E03               	comf	(___aodiv@dividend+2)^0,f,c
  2467   002D0A  1E02               	comf	(___aodiv@dividend+1)^0,f,c
  2468   002D0C  6C01               	negf	___aodiv@dividend^0,c
  2469   002D0E  0E00               	movlw	0
  2470   002D10  2202               	addwfc	(___aodiv@dividend+1)^0,f,c
  2471   002D12  2203               	addwfc	(___aodiv@dividend+2)^0,f,c
  2472   002D14  2204               	addwfc	(___aodiv@dividend+3)^0,f,c
  2473   002D16  2205               	addwfc	(___aodiv@dividend+4)^0,f,c
  2474   002D18  2206               	addwfc	(___aodiv@dividend+5)^0,f,c
  2475   002D1A  2207               	addwfc	(___aodiv@dividend+6)^0,f,c
  2476   002D1C  2208               	addwfc	(___aodiv@dividend+7)^0,f,c
  2477   002D1E  0E01               	movlw	1
  2478   002D20  1A12               	xorwf	___aodiv@sign^0,f,c
  2479   002D22                     l2325:
  2480   002D22  EE20  F013         	lfsr	2,___aodiv@quotient
  2481   002D26  0E07               	movlw	7
  2482   002D28                     u1901:
  2483   002D28  6ADE               	clrf	postinc2,c
  2484   002D2A  06E8               	decf	wreg,f,c
  2485   002D2C  E2FD               	bc	u1901
  2486   002D2E  5009               	movf	___aodiv@divisor^0,w,c
  2487   002D30  100A               	iorwf	(___aodiv@divisor+1)^0,w,c
  2488   002D32  100B               	iorwf	(___aodiv@divisor+2)^0,w,c
  2489   002D34  100C               	iorwf	(___aodiv@divisor+3)^0,w,c
  2490   002D36  100D               	iorwf	(___aodiv@divisor+4)^0,w,c
  2491   002D38  100E               	iorwf	(___aodiv@divisor+5)^0,w,c
  2492   002D3A  100F               	iorwf	(___aodiv@divisor+6)^0,w,c
  2493   002D3C  1010               	iorwf	(___aodiv@divisor+7)^0,w,c
  2494   002D3E  B4D8               	btfsc	status,2,c
  2495   002D40  EFA4  F016         	goto	u1911
  2496   002D44  EFA6  F016         	goto	u1910
  2497   002D48                     u1911:
  2498   002D48  EFF8  F016         	goto	l2347
  2499   002D4C                     u1910:
  2500   002D4C  0E01               	movlw	1
  2501   002D4E  6E11               	movwf	___aodiv@counter^0,c
  2502   002D50  EFB4  F016         	goto	l2333
  2503   002D54                     l2331:
  2504   002D54  90D8               	bcf	status,0,c
  2505   002D56  3609               	rlcf	___aodiv@divisor^0,f,c
  2506   002D58  360A               	rlcf	(___aodiv@divisor+1)^0,f,c
  2507   002D5A  360B               	rlcf	(___aodiv@divisor+2)^0,f,c
  2508   002D5C  360C               	rlcf	(___aodiv@divisor+3)^0,f,c
  2509   002D5E  360D               	rlcf	(___aodiv@divisor+4)^0,f,c
  2510   002D60  360E               	rlcf	(___aodiv@divisor+5)^0,f,c
  2511   002D62  360F               	rlcf	(___aodiv@divisor+6)^0,f,c
  2512   002D64  3610               	rlcf	(___aodiv@divisor+7)^0,f,c
  2513   002D66  2A11               	incf	___aodiv@counter^0,f,c
  2514   002D68                     l2333:
  2515   002D68  AE10               	btfss	(___aodiv@divisor+7)^0,7,c
  2516   002D6A  EFB9  F016         	goto	u1921
  2517   002D6E  EFBB  F016         	goto	u1920
  2518   002D72                     u1921:
  2519   002D72  EFAA  F016         	goto	l2331
  2520   002D76                     u1920:
  2521   002D76                     l2335:
  2522   002D76  90D8               	bcf	status,0,c
  2523   002D78  3613               	rlcf	___aodiv@quotient^0,f,c
  2524   002D7A  3614               	rlcf	(___aodiv@quotient+1)^0,f,c
  2525   002D7C  3615               	rlcf	(___aodiv@quotient+2)^0,f,c
  2526   002D7E  3616               	rlcf	(___aodiv@quotient+3)^0,f,c
  2527   002D80  3617               	rlcf	(___aodiv@quotient+4)^0,f,c
  2528   002D82  3618               	rlcf	(___aodiv@quotient+5)^0,f,c
  2529   002D84  3619               	rlcf	(___aodiv@quotient+6)^0,f,c
  2530   002D86  361A               	rlcf	(___aodiv@quotient+7)^0,f,c
  2531   002D88  5009               	movf	___aodiv@divisor^0,w,c
  2532   002D8A  5C01               	subwf	___aodiv@dividend^0,w,c
  2533   002D8C  500A               	movf	(___aodiv@divisor+1)^0,w,c
  2534   002D8E  5802               	subwfb	(___aodiv@dividend+1)^0,w,c
  2535   002D90  500B               	movf	(___aodiv@divisor+2)^0,w,c
  2536   002D92  5803               	subwfb	(___aodiv@dividend+2)^0,w,c
  2537   002D94  500C               	movf	(___aodiv@divisor+3)^0,w,c
  2538   002D96  5804               	subwfb	(___aodiv@dividend+3)^0,w,c
  2539   002D98  500D               	movf	(___aodiv@divisor+4)^0,w,c
  2540   002D9A  5805               	subwfb	(___aodiv@dividend+4)^0,w,c
  2541   002D9C  500E               	movf	(___aodiv@divisor+5)^0,w,c
  2542   002D9E  5806               	subwfb	(___aodiv@dividend+5)^0,w,c
  2543   002DA0  500F               	movf	(___aodiv@divisor+6)^0,w,c
  2544   002DA2  5807               	subwfb	(___aodiv@dividend+6)^0,w,c
  2545   002DA4  5010               	movf	(___aodiv@divisor+7)^0,w,c
  2546   002DA6  5808               	subwfb	(___aodiv@dividend+7)^0,w,c
  2547   002DA8  A0D8               	btfss	status,0,c
  2548   002DAA  EFD9  F016         	goto	u1931
  2549   002DAE  EFDB  F016         	goto	u1930
  2550   002DB2                     u1931:
  2551   002DB2  EFEC  F016         	goto	l2343
  2552   002DB6                     u1930:
  2553   002DB6  5009               	movf	___aodiv@divisor^0,w,c
  2554   002DB8  5E01               	subwf	___aodiv@dividend^0,f,c
  2555   002DBA  500A               	movf	(___aodiv@divisor+1)^0,w,c
  2556   002DBC  5A02               	subwfb	(___aodiv@dividend+1)^0,f,c
  2557   002DBE  500B               	movf	(___aodiv@divisor+2)^0,w,c
  2558   002DC0  5A03               	subwfb	(___aodiv@dividend+2)^0,f,c
  2559   002DC2  500C               	movf	(___aodiv@divisor+3)^0,w,c
  2560   002DC4  5A04               	subwfb	(___aodiv@dividend+3)^0,f,c
  2561   002DC6  500D               	movf	(___aodiv@divisor+4)^0,w,c
  2562   002DC8  5A05               	subwfb	(___aodiv@dividend+4)^0,f,c
  2563   002DCA  500E               	movf	(___aodiv@divisor+5)^0,w,c
  2564   002DCC  5A06               	subwfb	(___aodiv@dividend+5)^0,f,c
  2565   002DCE  500F               	movf	(___aodiv@divisor+6)^0,w,c
  2566   002DD0  5A07               	subwfb	(___aodiv@dividend+6)^0,f,c
  2567   002DD2  5010               	movf	(___aodiv@divisor+7)^0,w,c
  2568   002DD4  5A08               	subwfb	(___aodiv@dividend+7)^0,f,c
  2569   002DD6  8013               	bsf	___aodiv@quotient^0,0,c
  2570   002DD8                     l2343:
  2571   002DD8  90D8               	bcf	status,0,c
  2572   002DDA  3210               	rrcf	(___aodiv@divisor+7)^0,f,c
  2573   002DDC  320F               	rrcf	(___aodiv@divisor+6)^0,f,c
  2574   002DDE  320E               	rrcf	(___aodiv@divisor+5)^0,f,c
  2575   002DE0  320D               	rrcf	(___aodiv@divisor+4)^0,f,c
  2576   002DE2  320C               	rrcf	(___aodiv@divisor+3)^0,f,c
  2577   002DE4  320B               	rrcf	(___aodiv@divisor+2)^0,f,c
  2578   002DE6  320A               	rrcf	(___aodiv@divisor+1)^0,f,c
  2579   002DE8  3209               	rrcf	___aodiv@divisor^0,f,c
  2580   002DEA  2E11               	decfsz	___aodiv@counter^0,f,c
  2581   002DEC  EFBB  F016         	goto	l2335
  2582   002DF0                     l2347:
  2583   002DF0  5012               	movf	___aodiv@sign^0,w,c
  2584   002DF2  B4D8               	btfsc	status,2,c
  2585   002DF4  EFFE  F016         	goto	u1941
  2586   002DF8  EF00  F017         	goto	u1940
  2587   002DFC                     u1941:
  2588   002DFC  EF10  F017         	goto	l2351
  2589   002E00                     u1940:
  2590   002E00  1E1A               	comf	(___aodiv@quotient+7)^0,f,c
  2591   002E02  1E19               	comf	(___aodiv@quotient+6)^0,f,c
  2592   002E04  1E18               	comf	(___aodiv@quotient+5)^0,f,c
  2593   002E06  1E17               	comf	(___aodiv@quotient+4)^0,f,c
  2594   002E08  1E16               	comf	(___aodiv@quotient+3)^0,f,c
  2595   002E0A  1E15               	comf	(___aodiv@quotient+2)^0,f,c
  2596   002E0C  1E14               	comf	(___aodiv@quotient+1)^0,f,c
  2597   002E0E  6C13               	negf	___aodiv@quotient^0,c
  2598   002E10  0E00               	movlw	0
  2599   002E12  2214               	addwfc	(___aodiv@quotient+1)^0,f,c
  2600   002E14  2215               	addwfc	(___aodiv@quotient+2)^0,f,c
  2601   002E16  2216               	addwfc	(___aodiv@quotient+3)^0,f,c
  2602   002E18  2217               	addwfc	(___aodiv@quotient+4)^0,f,c
  2603   002E1A  2218               	addwfc	(___aodiv@quotient+5)^0,f,c
  2604   002E1C  2219               	addwfc	(___aodiv@quotient+6)^0,f,c
  2605   002E1E  221A               	addwfc	(___aodiv@quotient+7)^0,f,c
  2606   002E20                     l2351:
  2607   002E20  C013  F001         	movff	___aodiv@quotient,?___aodiv
  2608   002E24  C014  F002         	movff	___aodiv@quotient+1,?___aodiv+1
  2609   002E28  C015  F003         	movff	___aodiv@quotient+2,?___aodiv+2
  2610   002E2C  C016  F004         	movff	___aodiv@quotient+3,?___aodiv+3
  2611   002E30  C017  F005         	movff	___aodiv@quotient+4,?___aodiv+4
  2612   002E34  C018  F006         	movff	___aodiv@quotient+5,?___aodiv+5
  2613   002E38  C019  F007         	movff	___aodiv@quotient+6,?___aodiv+6
  2614   002E3C  C01A  F008         	movff	___aodiv@quotient+7,?___aodiv+7
  2615   002E40  0012               	return		;funcret
  2616   002E42                     __end_of___aodiv:
  2617                           	callstack 0
  2618                           
  2619 ;; *************** function _sendStringSerial4 *****************
  2620 ;; Defined at:
  2621 ;;		line 33 in file "serial.c"
  2622 ;; Parameters:    Size  Location     Type
  2623 ;;  string          2    1[COMRAM] PTR unsigned char 
  2624 ;;		 -> main@buf(100), 
  2625 ;; Auto vars:     Size  Location     Type
  2626 ;;		None
  2627 ;; Return value:  Size  Location     Type
  2628 ;;                  1    wreg      void 
  2629 ;; Registers used:
  2630 ;;		wreg, fsr2l, fsr2h, status,2, status,0, cstack
  2631 ;; Tracked objects:
  2632 ;;		On entry : 0/0
  2633 ;;		On exit  : 0/0
  2634 ;;		Unchanged: 0/0
  2635 ;; Data sizes:     COMRAM   BANK0   BANK1   BANK2   BANK3   BANK4   BANK5   BANK6   BANK7   BANK8   BANK9  BANK10  BANK1
      +1  BANK12  BANK13
  2636 ;;      Params:         2       0       0       0       0       0       0       0       0       0       0       0       
      +0       0       0
  2637 ;;      Locals:         0       0       0       0       0       0       0       0       0       0       0       0       
      +0       0       0
  2638 ;;      Temps:          0       0       0       0       0       0       0       0       0       0       0       0       
      +0       0       0
  2639 ;;      Totals:         2       0       0       0       0       0       0       0       0       0       0       0       
      +0       0       0
  2640 ;;Total ram usage:        2 bytes
  2641 ;; Hardware stack levels used: 1
  2642 ;; Hardware stack levels required when called: 2
  2643 ;; This function calls:
  2644 ;;		_sendCharSerial4
  2645 ;; This function is called by:
  2646 ;;		_main
  2647 ;; This function uses a non-reentrant model
  2648 ;;
  2649                           
  2650                           	psect	text12
  2651   0038DA                     __ptext12:
  2652                           	callstack 0
  2653   0038DA                     _sendStringSerial4:
  2654                           	callstack 28
  2655   0038DA                     
  2656                           ;serial.c: 34:     while (*string!=0){
  2657   0038DA  EF78  F01C         	goto	l3377
  2658   0038DE                     l3373:
  2659                           
  2660                           ;serial.c: 35:         sendCharSerial4(*string++);
  2661   0038DE  C002  FFD9         	movff	sendStringSerial4@string,fsr2l
  2662   0038E2  C003  FFDA         	movff	sendStringSerial4@string+1,fsr2h
  2663   0038E6  50DF               	movf	indf2,w,c
  2664   0038E8  ECCD  F01C         	call	_sendCharSerial4
  2665   0038EC  4A02               	infsnz	sendStringSerial4@string^0,f,c
  2666   0038EE  2A03               	incf	(sendStringSerial4@string+1)^0,f,c
  2667   0038F0                     l3377:
  2668                           
  2669                           ;serial.c: 34:     while (*string!=0){
  2670   0038F0  C002  FFD9         	movff	sendStringSerial4@string,fsr2l
  2671   0038F4  C003  FFDA         	movff	sendStringSerial4@string+1,fsr2h
  2672   0038F8  50DF               	movf	indf2,w,c
  2673   0038FA  A4D8               	btfss	status,2,c
  2674   0038FC  EF82  F01C         	goto	u3541
  2675   003900  EF84  F01C         	goto	u3540
  2676   003904                     u3541:
  2677   003904  EF6F  F01C         	goto	l3373
  2678   003908                     u3540:
  2679   003908  0012               	return		;funcret
  2680   00390A                     __end_of_sendStringSerial4:
  2681                           	callstack 0
  2682                           
  2683 ;; *************** function _sendCharSerial4 *****************
  2684 ;; Defined at:
  2685 ;;		line 26 in file "serial.c"
  2686 ;; Parameters:    Size  Location     Type
  2687 ;;  charToSend      1    wreg     unsigned char 
  2688 ;; Auto vars:     Size  Location     Type
  2689 ;;  charToSend      1    0[COMRAM] unsigned char 
  2690 ;; Return value:  Size  Location     Type
  2691 ;;                  1    wreg      void 
  2692 ;; Registers used:
  2693 ;;		wreg
  2694 ;; Tracked objects:
  2695 ;;		On entry : 0/0
  2696 ;;		On exit  : 0/0
  2697 ;;		Unchanged: 0/0
  2698 ;; Data sizes:     COMRAM   BANK0   BANK1   BANK2   BANK3   BANK4   BANK5   BANK6   BANK7   BANK8   BANK9  BANK10  BANK1
      +1  BANK12  BANK13
  2699 ;;      Params:         0       0       0       0       0       0       0       0       0       0       0       0       
      +0       0       0
  2700 ;;      Locals:         1       0       0       0       0       0       0       0       0       0       0       0       
      +0       0       0
  2701 ;;      Temps:          0       0       0       0       0       0       0       0       0       0       0       0       
      +0       0       0
  2702 ;;      Totals:         1       0       0       0       0       0       0       0       0       0       0       0       
      +0       0       0
  2703 ;;Total ram usage:        1 bytes
  2704 ;; Hardware stack levels used: 1
  2705 ;; Hardware stack levels required when called: 1
  2706 ;; This function calls:
  2707 ;;		Nothing
  2708 ;; This function is called by:
  2709 ;;		_sendStringSerial4
  2710 ;; This function uses a non-reentrant model
  2711 ;;
  2712                           
  2713                           	psect	text13
  2714   00399A                     __ptext13:
  2715                           	callstack 0
  2716   00399A                     _sendCharSerial4:
  2717                           	callstack 28
  2718                           
  2719                           ;incstack = 0
  2720                           ;sendCharSerial4@charToSend stored from wreg
  2721   00399A  6E01               	movwf	sendCharSerial4@charToSend^0,c
  2722   00399C                     l198:
  2723   00399C  010E               	movlb	14	; () banked
  2724   00399E  A537               	btfss	55,2,b	;volatile
  2725   0039A0  EFD4  F01C         	goto	u2601
  2726   0039A4  EFD6  F01C         	goto	u2600
  2727   0039A8                     u2601:
  2728   0039A8  EFCE  F01C         	goto	l198
  2729   0039AC                     u2600:
  2730   0039AC                     
  2731                           ; BSR set to: 14
  2732                           ;serial.c: 28:     TX4REG = charToSend;
  2733   0039AC  C001  FEE4         	movff	sendCharSerial4@charToSend,3812	;volatile
  2734   0039B0                     
  2735                           ; BSR set to: 14
  2736   0039B0  0012               	return		;funcret
  2737   0039B2                     __end_of_sendCharSerial4:
  2738                           	callstack 0
  2739                           
  2740 ;; *************** function _readColours *****************
  2741 ;; Defined at:
  2742 ;;		line 103 in file "color.c"
  2743 ;; Parameters:    Size  Location     Type
  2744 ;;  vals            2   11[COMRAM] PTR struct RGB
  2745 ;;		 -> vals(8), 
  2746 ;; Auto vars:     Size  Location     Type
  2747 ;;		None
  2748 ;; Return value:  Size  Location     Type
  2749 ;;                  1    wreg      void 
  2750 ;; Registers used:
  2751 ;;		wreg, fsr2l, fsr2h, status,2, status,0, cstack
  2752 ;; Tracked objects:
  2753 ;;		On entry : 0/0
  2754 ;;		On exit  : 0/0
  2755 ;;		Unchanged: 0/0
  2756 ;; Data sizes:     COMRAM   BANK0   BANK1   BANK2   BANK3   BANK4   BANK5   BANK6   BANK7   BANK8   BANK9  BANK10  BANK1
      +1  BANK12  BANK13
  2757 ;;      Params:         2       0       0       0       0       0       0       0       0       0       0       0       
      +0       0       0
  2758 ;;      Locals:         0       0       0       0       0       0       0       0       0       0       0       0       
      +0       0       0
  2759 ;;      Temps:          0       0       0       0       0       0       0       0       0       0       0       0       
      +0       0       0
  2760 ;;      Totals:         2       0       0       0       0       0       0       0       0       0       0       0       
      +0       0       0
  2761 ;;Total ram usage:        2 bytes
  2762 ;; Hardware stack levels used: 1
  2763 ;; Hardware stack levels required when called: 4
  2764 ;; This function calls:
  2765 ;;		_color_read_Blue
  2766 ;;		_color_read_Green
  2767 ;;		_color_read_Red
  2768 ;;		_color_read_lum
  2769 ;; This function is called by:
  2770 ;;		_main
  2771 ;; This function uses a non-reentrant model
  2772 ;;
  2773                           
  2774                           	psect	text14
  2775   00353E                     __ptext14:
  2776                           	callstack 0
  2777   00353E                     _readColours:
  2778                           	callstack 26
  2779   00353E                     
  2780                           ;color.c: 105:     vals ->R = color_read_Red();
  2781   00353E  EC48  F01B         	call	_color_read_Red	;wreg free
  2782   003542  C00C  FFD9         	movff	readColours@vals,fsr2l
  2783   003546  C00D  FFDA         	movff	readColours@vals+1,fsr2h
  2784   00354A  C005  FFDE         	movff	?_color_read_Red,postinc2
  2785   00354E  C006  FFDD         	movff	?_color_read_Red+1,postdec2
  2786                           
  2787                           ;color.c: 106:     vals ->B = color_read_Blue();
  2788   003552  EC98  F01B         	call	_color_read_Blue	;wreg free
  2789   003556  EE20 F004          	lfsr	2,4
  2790   00355A  500C               	movf	readColours@vals^0,w,c
  2791   00355C  26D9               	addwf	fsr2l,f,c
  2792   00355E  500D               	movf	(readColours@vals+1)^0,w,c
  2793   003560  22DA               	addwfc	fsr2h,f,c
  2794   003562  C005  FFDE         	movff	?_color_read_Blue,postinc2
  2795   003566  C006  FFDD         	movff	?_color_read_Blue+1,postdec2
  2796                           
  2797                           ;color.c: 107:     vals ->G = color_read_Green();
  2798   00356A  EC70  F01B         	call	_color_read_Green	;wreg free
  2799   00356E  EE20 F002          	lfsr	2,2
  2800   003572  500C               	movf	readColours@vals^0,w,c
  2801   003574  26D9               	addwf	fsr2l,f,c
  2802   003576  500D               	movf	(readColours@vals+1)^0,w,c
  2803   003578  22DA               	addwfc	fsr2h,f,c
  2804   00357A  C005  FFDE         	movff	?_color_read_Green,postinc2
  2805   00357E  C006  FFDD         	movff	?_color_read_Green+1,postdec2
  2806                           
  2807                           ;color.c: 108:     vals ->L = color_read_lum();
  2808   003582  EC20  F01B         	call	_color_read_lum	;wreg free
  2809   003586  EE20 F006          	lfsr	2,6
  2810   00358A  500C               	movf	readColours@vals^0,w,c
  2811   00358C  26D9               	addwf	fsr2l,f,c
  2812   00358E  500D               	movf	(readColours@vals+1)^0,w,c
  2813   003590  22DA               	addwfc	fsr2h,f,c
  2814   003592  C005  FFDE         	movff	?_color_read_lum,postinc2
  2815   003596  C006  FFDD         	movff	?_color_read_lum+1,postdec2
  2816   00359A  0012               	return		;funcret
  2817   00359C                     __end_of_readColours:
  2818                           	callstack 0
  2819                           
  2820 ;; *************** function _color_read_lum *****************
  2821 ;; Defined at:
  2822 ;;		line 47 in file "color.c"
  2823 ;; Parameters:    Size  Location     Type
  2824 ;;		None
  2825 ;; Auto vars:     Size  Location     Type
  2826 ;;  tmp             2    9[COMRAM] unsigned int 
  2827 ;; Return value:  Size  Location     Type
  2828 ;;                  2    4[COMRAM] unsigned int 
  2829 ;; Registers used:
  2830 ;;		wreg, status,2, status,0, cstack
  2831 ;; Tracked objects:
  2832 ;;		On entry : 0/0
  2833 ;;		On exit  : 0/0
  2834 ;;		Unchanged: 0/0
  2835 ;; Data sizes:     COMRAM   BANK0   BANK1   BANK2   BANK3   BANK4   BANK5   BANK6   BANK7   BANK8   BANK9  BANK10  BANK1
      +1  BANK12  BANK13
  2836 ;;      Params:         2       0       0       0       0       0       0       0       0       0       0       0       
      +0       0       0
  2837 ;;      Locals:         2       0       0       0       0       0       0       0       0       0       0       0       
      +0       0       0
  2838 ;;      Temps:          3       0       0       0       0       0       0       0       0       0       0       0       
      +0       0       0
  2839 ;;      Totals:         7       0       0       0       0       0       0       0       0       0       0       0       
      +0       0       0
  2840 ;;Total ram usage:        7 bytes
  2841 ;; Hardware stack levels used: 1
  2842 ;; Hardware stack levels required when called: 3
  2843 ;; This function calls:
  2844 ;;		_I2C_2_Master_Read
  2845 ;;		_I2C_2_Master_RepStart
  2846 ;;		_I2C_2_Master_Start
  2847 ;;		_I2C_2_Master_Stop
  2848 ;;		_I2C_2_Master_Write
  2849 ;; This function is called by:
  2850 ;;		_readColours
  2851 ;; This function uses a non-reentrant model
  2852 ;;
  2853                           
  2854                           	psect	text15
  2855   003640                     __ptext15:
  2856                           	callstack 0
  2857   003640                     _color_read_lum:
  2858                           	callstack 26
  2859   003640                     
  2860                           ;color.c: 49:  unsigned int tmp;;color.c: 50:  I2C_2_Master_Start();
  2861   003640  ECE9  F01C         	call	_I2C_2_Master_Start	;wreg free
  2862                           
  2863                           ;color.c: 51:  I2C_2_Master_Write(0x52 | 0x00);
  2864   003644  0E52               	movlw	82
  2865   003646  ECD9  F01C         	call	_I2C_2_Master_Write
  2866                           
  2867                           ;color.c: 52:  I2C_2_Master_Write(0xA0 | 0x14);
  2868   00364A  0EB4               	movlw	180
  2869   00364C  ECD9  F01C         	call	_I2C_2_Master_Write
  2870                           
  2871                           ;color.c: 53:  I2C_2_Master_RepStart();
  2872   003650  ECDF  F01C         	call	_I2C_2_Master_RepStart	;wreg free
  2873                           
  2874                           ;color.c: 54:  I2C_2_Master_Write(0x52 | 0x01);
  2875   003654  0E53               	movlw	83
  2876   003656  ECD9  F01C         	call	_I2C_2_Master_Write
  2877                           
  2878                           ;color.c: 55:  tmp=I2C_2_Master_Read(1);
  2879   00365A  0E01               	movlw	1
  2880   00365C  EC2C  F01C         	call	_I2C_2_Master_Read
  2881   003660  6E07               	movwf	??_color_read_lum^0,c
  2882   003662  5007               	movf	??_color_read_lum^0,w,c
  2883   003664  6E0A               	movwf	color_read_lum@tmp^0,c
  2884   003666  6A0B               	clrf	(color_read_lum@tmp+1)^0,c
  2885                           
  2886                           ;color.c: 56:  tmp=tmp | (I2C_2_Master_Read(0)<<8);
  2887   003668  0E00               	movlw	0
  2888   00366A  EC2C  F01C         	call	_I2C_2_Master_Read
  2889   00366E  6E07               	movwf	??_color_read_lum^0,c
  2890   003670  5007               	movf	??_color_read_lum^0,w,c
  2891   003672  6E09               	movwf	(??_color_read_lum+2)^0,c
  2892   003674  6A08               	clrf	(??_color_read_lum+1)^0,c
  2893   003676  500A               	movf	color_read_lum@tmp^0,w,c
  2894   003678  1008               	iorwf	(??_color_read_lum+1)^0,w,c
  2895   00367A  6E0A               	movwf	color_read_lum@tmp^0,c
  2896   00367C  500B               	movf	(color_read_lum@tmp+1)^0,w,c
  2897   00367E  1009               	iorwf	(??_color_read_lum+2)^0,w,c
  2898   003680  6E0B               	movwf	(color_read_lum@tmp+1)^0,c
  2899                           
  2900                           ;color.c: 57:  I2C_2_Master_Stop();
  2901   003682  ECE4  F01C         	call	_I2C_2_Master_Stop	;wreg free
  2902   003686                     
  2903                           ;color.c: 58:  return tmp;
  2904   003686  C00A  F005         	movff	color_read_lum@tmp,?_color_read_lum
  2905   00368A  C00B  F006         	movff	color_read_lum@tmp+1,?_color_read_lum+1
  2906   00368E  0012               	return		;funcret
  2907   003690                     __end_of_color_read_lum:
  2908                           	callstack 0
  2909                           
  2910 ;; *************** function _color_read_Red *****************
  2911 ;; Defined at:
  2912 ;;		line 61 in file "color.c"
  2913 ;; Parameters:    Size  Location     Type
  2914 ;;		None
  2915 ;; Auto vars:     Size  Location     Type
  2916 ;;  tmp             2    9[COMRAM] unsigned int 
  2917 ;; Return value:  Size  Location     Type
  2918 ;;                  2    4[COMRAM] unsigned int 
  2919 ;; Registers used:
  2920 ;;		wreg, status,2, status,0, cstack
  2921 ;; Tracked objects:
  2922 ;;		On entry : 0/0
  2923 ;;		On exit  : 0/0
  2924 ;;		Unchanged: 0/0
  2925 ;; Data sizes:     COMRAM   BANK0   BANK1   BANK2   BANK3   BANK4   BANK5   BANK6   BANK7   BANK8   BANK9  BANK10  BANK1
      +1  BANK12  BANK13
  2926 ;;      Params:         2       0       0       0       0       0       0       0       0       0       0       0       
      +0       0       0
  2927 ;;      Locals:         2       0       0       0       0       0       0       0       0       0       0       0       
      +0       0       0
  2928 ;;      Temps:          3       0       0       0       0       0       0       0       0       0       0       0       
      +0       0       0
  2929 ;;      Totals:         7       0       0       0       0       0       0       0       0       0       0       0       
      +0       0       0
  2930 ;;Total ram usage:        7 bytes
  2931 ;; Hardware stack levels used: 1
  2932 ;; Hardware stack levels required when called: 3
  2933 ;; This function calls:
  2934 ;;		_I2C_2_Master_Read
  2935 ;;		_I2C_2_Master_RepStart
  2936 ;;		_I2C_2_Master_Start
  2937 ;;		_I2C_2_Master_Stop
  2938 ;;		_I2C_2_Master_Write
  2939 ;; This function is called by:
  2940 ;;		_readColours
  2941 ;; This function uses a non-reentrant model
  2942 ;;
  2943                           
  2944                           	psect	text16
  2945   003690                     __ptext16:
  2946                           	callstack 0
  2947   003690                     _color_read_Red:
  2948                           	callstack 26
  2949   003690                     
  2950                           ;color.c: 63:  unsigned int tmp;;color.c: 64:  I2C_2_Master_Start();
  2951   003690  ECE9  F01C         	call	_I2C_2_Master_Start	;wreg free
  2952                           
  2953                           ;color.c: 65:  I2C_2_Master_Write(0x52 | 0x00);
  2954   003694  0E52               	movlw	82
  2955   003696  ECD9  F01C         	call	_I2C_2_Master_Write
  2956                           
  2957                           ;color.c: 66:  I2C_2_Master_Write(0xA0 | 0x16);
  2958   00369A  0EB6               	movlw	182
  2959   00369C  ECD9  F01C         	call	_I2C_2_Master_Write
  2960                           
  2961                           ;color.c: 67:  I2C_2_Master_RepStart();
  2962   0036A0  ECDF  F01C         	call	_I2C_2_Master_RepStart	;wreg free
  2963                           
  2964                           ;color.c: 68:  I2C_2_Master_Write(0x52 | 0x01);
  2965   0036A4  0E53               	movlw	83
  2966   0036A6  ECD9  F01C         	call	_I2C_2_Master_Write
  2967                           
  2968                           ;color.c: 69:  tmp=I2C_2_Master_Read(1);
  2969   0036AA  0E01               	movlw	1
  2970   0036AC  EC2C  F01C         	call	_I2C_2_Master_Read
  2971   0036B0  6E07               	movwf	??_color_read_Red^0,c
  2972   0036B2  5007               	movf	??_color_read_Red^0,w,c
  2973   0036B4  6E0A               	movwf	color_read_Red@tmp^0,c
  2974   0036B6  6A0B               	clrf	(color_read_Red@tmp+1)^0,c
  2975                           
  2976                           ;color.c: 70:  tmp=tmp | (I2C_2_Master_Read(0)<<8);
  2977   0036B8  0E00               	movlw	0
  2978   0036BA  EC2C  F01C         	call	_I2C_2_Master_Read
  2979   0036BE  6E07               	movwf	??_color_read_Red^0,c
  2980   0036C0  5007               	movf	??_color_read_Red^0,w,c
  2981   0036C2  6E09               	movwf	(??_color_read_Red+2)^0,c
  2982   0036C4  6A08               	clrf	(??_color_read_Red+1)^0,c
  2983   0036C6  500A               	movf	color_read_Red@tmp^0,w,c
  2984   0036C8  1008               	iorwf	(??_color_read_Red+1)^0,w,c
  2985   0036CA  6E0A               	movwf	color_read_Red@tmp^0,c
  2986   0036CC  500B               	movf	(color_read_Red@tmp+1)^0,w,c
  2987   0036CE  1009               	iorwf	(??_color_read_Red+2)^0,w,c
  2988   0036D0  6E0B               	movwf	(color_read_Red@tmp+1)^0,c
  2989                           
  2990                           ;color.c: 71:  I2C_2_Master_Stop();
  2991   0036D2  ECE4  F01C         	call	_I2C_2_Master_Stop	;wreg free
  2992   0036D6                     
  2993                           ;color.c: 72:  return tmp;
  2994   0036D6  C00A  F005         	movff	color_read_Red@tmp,?_color_read_Red
  2995   0036DA  C00B  F006         	movff	color_read_Red@tmp+1,?_color_read_Red+1
  2996   0036DE  0012               	return		;funcret
  2997   0036E0                     __end_of_color_read_Red:
  2998                           	callstack 0
  2999                           
  3000 ;; *************** function _color_read_Green *****************
  3001 ;; Defined at:
  3002 ;;		line 74 in file "color.c"
  3003 ;; Parameters:    Size  Location     Type
  3004 ;;		None
  3005 ;; Auto vars:     Size  Location     Type
  3006 ;;  tmp             2    9[COMRAM] unsigned int 
  3007 ;; Return value:  Size  Location     Type
  3008 ;;                  2    4[COMRAM] unsigned int 
  3009 ;; Registers used:
  3010 ;;		wreg, status,2, status,0, cstack
  3011 ;; Tracked objects:
  3012 ;;		On entry : 0/0
  3013 ;;		On exit  : 0/0
  3014 ;;		Unchanged: 0/0
  3015 ;; Data sizes:     COMRAM   BANK0   BANK1   BANK2   BANK3   BANK4   BANK5   BANK6   BANK7   BANK8   BANK9  BANK10  BANK1
      +1  BANK12  BANK13
  3016 ;;      Params:         2       0       0       0       0       0       0       0       0       0       0       0       
      +0       0       0
  3017 ;;      Locals:         2       0       0       0       0       0       0       0       0       0       0       0       
      +0       0       0
  3018 ;;      Temps:          3       0       0       0       0       0       0       0       0       0       0       0       
      +0       0       0
  3019 ;;      Totals:         7       0       0       0       0       0       0       0       0       0       0       0       
      +0       0       0
  3020 ;;Total ram usage:        7 bytes
  3021 ;; Hardware stack levels used: 1
  3022 ;; Hardware stack levels required when called: 3
  3023 ;; This function calls:
  3024 ;;		_I2C_2_Master_Read
  3025 ;;		_I2C_2_Master_RepStart
  3026 ;;		_I2C_2_Master_Start
  3027 ;;		_I2C_2_Master_Stop
  3028 ;;		_I2C_2_Master_Write
  3029 ;; This function is called by:
  3030 ;;		_readColours
  3031 ;; This function uses a non-reentrant model
  3032 ;;
  3033                           
  3034                           	psect	text17
  3035   0036E0                     __ptext17:
  3036                           	callstack 0
  3037   0036E0                     _color_read_Green:
  3038                           	callstack 26
  3039   0036E0                     
  3040                           ;color.c: 76:  unsigned int tmp;;color.c: 77:  I2C_2_Master_Start();
  3041   0036E0  ECE9  F01C         	call	_I2C_2_Master_Start	;wreg free
  3042                           
  3043                           ;color.c: 78:  I2C_2_Master_Write(0x52 | 0x00);
  3044   0036E4  0E52               	movlw	82
  3045   0036E6  ECD9  F01C         	call	_I2C_2_Master_Write
  3046                           
  3047                           ;color.c: 79:  I2C_2_Master_Write(0xA0 | 0x18);
  3048   0036EA  0EB8               	movlw	184
  3049   0036EC  ECD9  F01C         	call	_I2C_2_Master_Write
  3050                           
  3051                           ;color.c: 80:  I2C_2_Master_RepStart();
  3052   0036F0  ECDF  F01C         	call	_I2C_2_Master_RepStart	;wreg free
  3053                           
  3054                           ;color.c: 81:  I2C_2_Master_Write(0x52 | 0x01);
  3055   0036F4  0E53               	movlw	83
  3056   0036F6  ECD9  F01C         	call	_I2C_2_Master_Write
  3057                           
  3058                           ;color.c: 82:  tmp=I2C_2_Master_Read(1);
  3059   0036FA  0E01               	movlw	1
  3060   0036FC  EC2C  F01C         	call	_I2C_2_Master_Read
  3061   003700  6E07               	movwf	??_color_read_Green^0,c
  3062   003702  5007               	movf	??_color_read_Green^0,w,c
  3063   003704  6E0A               	movwf	color_read_Green@tmp^0,c
  3064   003706  6A0B               	clrf	(color_read_Green@tmp+1)^0,c
  3065                           
  3066                           ;color.c: 83:  tmp=tmp | (I2C_2_Master_Read(0)<<8);
  3067   003708  0E00               	movlw	0
  3068   00370A  EC2C  F01C         	call	_I2C_2_Master_Read
  3069   00370E  6E07               	movwf	??_color_read_Green^0,c
  3070   003710  5007               	movf	??_color_read_Green^0,w,c
  3071   003712  6E09               	movwf	(??_color_read_Green+2)^0,c
  3072   003714  6A08               	clrf	(??_color_read_Green+1)^0,c
  3073   003716  500A               	movf	color_read_Green@tmp^0,w,c
  3074   003718  1008               	iorwf	(??_color_read_Green+1)^0,w,c
  3075   00371A  6E0A               	movwf	color_read_Green@tmp^0,c
  3076   00371C  500B               	movf	(color_read_Green@tmp+1)^0,w,c
  3077   00371E  1009               	iorwf	(??_color_read_Green+2)^0,w,c
  3078   003720  6E0B               	movwf	(color_read_Green@tmp+1)^0,c
  3079                           
  3080                           ;color.c: 84:  I2C_2_Master_Stop();
  3081   003722  ECE4  F01C         	call	_I2C_2_Master_Stop	;wreg free
  3082   003726                     
  3083                           ;color.c: 85:  return tmp;
  3084   003726  C00A  F005         	movff	color_read_Green@tmp,?_color_read_Green
  3085   00372A  C00B  F006         	movff	color_read_Green@tmp+1,?_color_read_Green+1
  3086   00372E  0012               	return		;funcret
  3087   003730                     __end_of_color_read_Green:
  3088                           	callstack 0
  3089                           
  3090 ;; *************** function _color_read_Blue *****************
  3091 ;; Defined at:
  3092 ;;		line 88 in file "color.c"
  3093 ;; Parameters:    Size  Location     Type
  3094 ;;		None
  3095 ;; Auto vars:     Size  Location     Type
  3096 ;;  tmp             2    9[COMRAM] unsigned int 
  3097 ;; Return value:  Size  Location     Type
  3098 ;;                  2    4[COMRAM] unsigned int 
  3099 ;; Registers used:
  3100 ;;		wreg, status,2, status,0, cstack
  3101 ;; Tracked objects:
  3102 ;;		On entry : 0/0
  3103 ;;		On exit  : 0/0
  3104 ;;		Unchanged: 0/0
  3105 ;; Data sizes:     COMRAM   BANK0   BANK1   BANK2   BANK3   BANK4   BANK5   BANK6   BANK7   BANK8   BANK9  BANK10  BANK1
      +1  BANK12  BANK13
  3106 ;;      Params:         2       0       0       0       0       0       0       0       0       0       0       0       
      +0       0       0
  3107 ;;      Locals:         2       0       0       0       0       0       0       0       0       0       0       0       
      +0       0       0
  3108 ;;      Temps:          3       0       0       0       0       0       0       0       0       0       0       0       
      +0       0       0
  3109 ;;      Totals:         7       0       0       0       0       0       0       0       0       0       0       0       
      +0       0       0
  3110 ;;Total ram usage:        7 bytes
  3111 ;; Hardware stack levels used: 1
  3112 ;; Hardware stack levels required when called: 3
  3113 ;; This function calls:
  3114 ;;		_I2C_2_Master_Read
  3115 ;;		_I2C_2_Master_RepStart
  3116 ;;		_I2C_2_Master_Start
  3117 ;;		_I2C_2_Master_Stop
  3118 ;;		_I2C_2_Master_Write
  3119 ;; This function is called by:
  3120 ;;		_readColours
  3121 ;; This function uses a non-reentrant model
  3122 ;;
  3123                           
  3124                           	psect	text18
  3125   003730                     __ptext18:
  3126                           	callstack 0
  3127   003730                     _color_read_Blue:
  3128                           	callstack 26
  3129   003730                     
  3130                           ;color.c: 90:  unsigned int tmp;;color.c: 91:  I2C_2_Master_Start();
  3131   003730  ECE9  F01C         	call	_I2C_2_Master_Start	;wreg free
  3132                           
  3133                           ;color.c: 92:  I2C_2_Master_Write(0x52 | 0x00);
  3134   003734  0E52               	movlw	82
  3135   003736  ECD9  F01C         	call	_I2C_2_Master_Write
  3136                           
  3137                           ;color.c: 93:  I2C_2_Master_Write(0xA0 | 0x1A);
  3138   00373A  0EBA               	movlw	186
  3139   00373C  ECD9  F01C         	call	_I2C_2_Master_Write
  3140                           
  3141                           ;color.c: 94:  I2C_2_Master_RepStart();
  3142   003740  ECDF  F01C         	call	_I2C_2_Master_RepStart	;wreg free
  3143                           
  3144                           ;color.c: 95:  I2C_2_Master_Write(0x52 | 0x01);
  3145   003744  0E53               	movlw	83
  3146   003746  ECD9  F01C         	call	_I2C_2_Master_Write
  3147                           
  3148                           ;color.c: 96:  tmp=I2C_2_Master_Read(1);
  3149   00374A  0E01               	movlw	1
  3150   00374C  EC2C  F01C         	call	_I2C_2_Master_Read
  3151   003750  6E07               	movwf	??_color_read_Blue^0,c
  3152   003752  5007               	movf	??_color_read_Blue^0,w,c
  3153   003754  6E0A               	movwf	color_read_Blue@tmp^0,c
  3154   003756  6A0B               	clrf	(color_read_Blue@tmp+1)^0,c
  3155                           
  3156                           ;color.c: 97:  tmp=tmp | (I2C_2_Master_Read(0)<<8);
  3157   003758  0E00               	movlw	0
  3158   00375A  EC2C  F01C         	call	_I2C_2_Master_Read
  3159   00375E  6E07               	movwf	??_color_read_Blue^0,c
  3160   003760  5007               	movf	??_color_read_Blue^0,w,c
  3161   003762  6E09               	movwf	(??_color_read_Blue+2)^0,c
  3162   003764  6A08               	clrf	(??_color_read_Blue+1)^0,c
  3163   003766  500A               	movf	color_read_Blue@tmp^0,w,c
  3164   003768  1008               	iorwf	(??_color_read_Blue+1)^0,w,c
  3165   00376A  6E0A               	movwf	color_read_Blue@tmp^0,c
  3166   00376C  500B               	movf	(color_read_Blue@tmp+1)^0,w,c
  3167   00376E  1009               	iorwf	(??_color_read_Blue+2)^0,w,c
  3168   003770  6E0B               	movwf	(color_read_Blue@tmp+1)^0,c
  3169                           
  3170                           ;color.c: 98:  I2C_2_Master_Stop();
  3171   003772  ECE4  F01C         	call	_I2C_2_Master_Stop	;wreg free
  3172   003776                     
  3173                           ;color.c: 99:  return tmp;
  3174   003776  C00A  F005         	movff	color_read_Blue@tmp,?_color_read_Blue
  3175   00377A  C00B  F006         	movff	color_read_Blue@tmp+1,?_color_read_Blue+1
  3176   00377E  0012               	return		;funcret
  3177   003780                     __end_of_color_read_Blue:
  3178                           	callstack 0
  3179                           
  3180 ;; *************** function _I2C_2_Master_RepStart *****************
  3181 ;; Defined at:
  3182 ;;		line 33 in file "i2c.c"
  3183 ;; Parameters:    Size  Location     Type
  3184 ;;		None
  3185 ;; Auto vars:     Size  Location     Type
  3186 ;;		None
  3187 ;; Return value:  Size  Location     Type
  3188 ;;                  1    wreg      void 
  3189 ;; Registers used:
  3190 ;;		wreg, status,2, status,0, cstack
  3191 ;; Tracked objects:
  3192 ;;		On entry : 0/0
  3193 ;;		On exit  : 0/0
  3194 ;;		Unchanged: 0/0
  3195 ;; Data sizes:     COMRAM   BANK0   BANK1   BANK2   BANK3   BANK4   BANK5   BANK6   BANK7   BANK8   BANK9  BANK10  BANK1
      +1  BANK12  BANK13
  3196 ;;      Params:         0       0       0       0       0       0       0       0       0       0       0       0       
      +0       0       0
  3197 ;;      Locals:         0       0       0       0       0       0       0       0       0       0       0       0       
      +0       0       0
  3198 ;;      Temps:          0       0       0       0       0       0       0       0       0       0       0       0       
      +0       0       0
  3199 ;;      Totals:         0       0       0       0       0       0       0       0       0       0       0       0       
      +0       0       0
  3200 ;;Total ram usage:        0 bytes
  3201 ;; Hardware stack levels used: 1
  3202 ;; Hardware stack levels required when called: 2
  3203 ;; This function calls:
  3204 ;;		_I2C_2_Master_Idle
  3205 ;; This function is called by:
  3206 ;;		_color_read_lum
  3207 ;;		_color_read_Red
  3208 ;;		_color_read_Green
  3209 ;;		_color_read_Blue
  3210 ;; This function uses a non-reentrant model
  3211 ;;
  3212                           
  3213                           	psect	text19
  3214   0039BE                     __ptext19:
  3215                           	callstack 0
  3216   0039BE                     _I2C_2_Master_RepStart:
  3217                           	callstack 26
  3218   0039BE                     
  3219                           ;i2c.c: 35:   I2C_2_Master_Idle();
  3220   0039BE  EC9A  F01C         	call	_I2C_2_Master_Idle	;wreg free
  3221   0039C2                     
  3222                           ;i2c.c: 36:   SSP2CON2bits.RSEN = 1;
  3223   0039C2  010E               	movlb	14	; () banked
  3224   0039C4  83DA               	bsf	218,1,b	;volatile
  3225   0039C6                     
  3226                           ; BSR set to: 14
  3227   0039C6  0012               	return		;funcret
  3228   0039C8                     __end_of_I2C_2_Master_RepStart:
  3229                           	callstack 0
  3230                           
  3231 ;; *************** function _I2C_2_Master_Read *****************
  3232 ;; Defined at:
  3233 ;;		line 51 in file "i2c.c"
  3234 ;; Parameters:    Size  Location     Type
  3235 ;;  ack             1    wreg     unsigned char 
  3236 ;; Auto vars:     Size  Location     Type
  3237 ;;  ack             1    2[COMRAM] unsigned char 
  3238 ;;  tmp             1    3[COMRAM] unsigned char 
  3239 ;; Return value:  Size  Location     Type
  3240 ;;                  1    wreg      unsigned char 
  3241 ;; Registers used:
  3242 ;;		wreg, status,2, status,0, cstack
  3243 ;; Tracked objects:
  3244 ;;		On entry : 0/0
  3245 ;;		On exit  : 0/0
  3246 ;;		Unchanged: 0/0
  3247 ;; Data sizes:     COMRAM   BANK0   BANK1   BANK2   BANK3   BANK4   BANK5   BANK6   BANK7   BANK8   BANK9  BANK10  BANK1
      +1  BANK12  BANK13
  3248 ;;      Params:         0       0       0       0       0       0       0       0       0       0       0       0       
      +0       0       0
  3249 ;;      Locals:         2       0       0       0       0       0       0       0       0       0       0       0       
      +0       0       0
  3250 ;;      Temps:          1       0       0       0       0       0       0       0       0       0       0       0       
      +0       0       0
  3251 ;;      Totals:         3       0       0       0       0       0       0       0       0       0       0       0       
      +0       0       0
  3252 ;;Total ram usage:        3 bytes
  3253 ;; Hardware stack levels used: 1
  3254 ;; Hardware stack levels required when called: 2
  3255 ;; This function calls:
  3256 ;;		_I2C_2_Master_Idle
  3257 ;; This function is called by:
  3258 ;;		_color_read_lum
  3259 ;;		_color_read_Red
  3260 ;;		_color_read_Green
  3261 ;;		_color_read_Blue
  3262 ;; This function uses a non-reentrant model
  3263 ;;
  3264                           
  3265                           	psect	text20
  3266   003858                     __ptext20:
  3267                           	callstack 0
  3268   003858                     _I2C_2_Master_Read:
  3269                           	callstack 26
  3270                           
  3271                           ; BSR set to: 14
  3272                           ;incstack = 0
  3273                           ;I2C_2_Master_Read@ack stored from wreg
  3274   003858  6E03               	movwf	I2C_2_Master_Read@ack^0,c
  3275   00385A                     
  3276                           ;i2c.c: 51: unsigned char I2C_2_Master_Read(unsigned char ack);i2c.c: 52: {;i2c.c: 53:  
      +                           unsigned char tmp;;i2c.c: 54:   I2C_2_Master_Idle();
  3277   00385A  EC9A  F01C         	call	_I2C_2_Master_Idle	;wreg free
  3278   00385E                     
  3279                           ;i2c.c: 55:   SSP2CON2bits.RCEN = 1;
  3280   00385E  010E               	movlb	14	; () banked
  3281   003860  87DA               	bsf	218,3,b	;volatile
  3282                           
  3283                           ;i2c.c: 56:   I2C_2_Master_Idle();
  3284   003862  EC9A  F01C         	call	_I2C_2_Master_Idle	;wreg free
  3285   003866                     
  3286                           ;i2c.c: 57:   tmp = SSP2BUF;
  3287   003866  CED5 F004          	movff	3797,I2C_2_Master_Read@tmp	;volatile
  3288                           
  3289                           ;i2c.c: 58:   I2C_2_Master_Idle();
  3290   00386A  EC9A  F01C         	call	_I2C_2_Master_Idle	;wreg free
  3291   00386E                     
  3292                           ;i2c.c: 59:   SSP2CON2bits.ACKDT = !ack;
  3293   00386E  5003               	movf	I2C_2_Master_Read@ack^0,w,c
  3294   003870  B4D8               	btfsc	status,2,c
  3295   003872  EF3D  F01C         	goto	u2161
  3296   003876  EF41  F01C         	goto	u2160
  3297   00387A                     u2161:
  3298   00387A  6A02               	clrf	??_I2C_2_Master_Read^0,c
  3299   00387C  2A02               	incf	??_I2C_2_Master_Read^0,f,c
  3300   00387E  EF42  F01C         	goto	u2178
  3301   003882                     u2160:
  3302   003882  6A02               	clrf	??_I2C_2_Master_Read^0,c
  3303   003884                     u2178:
  3304   003884  3A02               	swapf	??_I2C_2_Master_Read^0,f,c
  3305   003886  4602               	rlncf	??_I2C_2_Master_Read^0,f,c
  3306   003888  010E               	movlb	14	; () banked
  3307   00388A  51DA               	movf	218,w,b	;volatile
  3308   00388C  1802               	xorwf	??_I2C_2_Master_Read^0,w,c
  3309   00388E  0BDF               	andlw	-33
  3310   003890  1802               	xorwf	??_I2C_2_Master_Read^0,w,c
  3311   003892  6FDA               	movwf	218,b	;volatile
  3312   003894                     
  3313                           ; BSR set to: 14
  3314                           ;i2c.c: 60:   SSP2CON2bits.ACKEN = 1;
  3315   003894  89DA               	bsf	218,4,b	;volatile
  3316   003896                     
  3317                           ; BSR set to: 14
  3318                           ;i2c.c: 61:   return tmp;
  3319   003896  5004               	movf	I2C_2_Master_Read@tmp^0,w,c
  3320   003898                     
  3321                           ; BSR set to: 14
  3322   003898  0012               	return		;funcret
  3323   00389A                     __end_of_I2C_2_Master_Read:
  3324                           	callstack 0
  3325                           
  3326 ;; *************** function _initUSART4 *****************
  3327 ;; Defined at:
  3328 ;;		line 4 in file "serial.c"
  3329 ;; Parameters:    Size  Location     Type
  3330 ;;		None
  3331 ;; Auto vars:     Size  Location     Type
  3332 ;;		None
  3333 ;; Return value:  Size  Location     Type
  3334 ;;                  1    wreg      void 
  3335 ;; Registers used:
  3336 ;;		wreg, status,2
  3337 ;; Tracked objects:
  3338 ;;		On entry : 0/0
  3339 ;;		On exit  : 0/0
  3340 ;;		Unchanged: 0/0
  3341 ;; Data sizes:     COMRAM   BANK0   BANK1   BANK2   BANK3   BANK4   BANK5   BANK6   BANK7   BANK8   BANK9  BANK10  BANK1
      +1  BANK12  BANK13
  3342 ;;      Params:         0       0       0       0       0       0       0       0       0       0       0       0       
      +0       0       0
  3343 ;;      Locals:         0       0       0       0       0       0       0       0       0       0       0       0       
      +0       0       0
  3344 ;;      Temps:          0       0       0       0       0       0       0       0       0       0       0       0       
      +0       0       0
  3345 ;;      Totals:         0       0       0       0       0       0       0       0       0       0       0       0       
      +0       0       0
  3346 ;;Total ram usage:        0 bytes
  3347 ;; Hardware stack levels used: 1
  3348 ;; Hardware stack levels required when called: 1
  3349 ;; This function calls:
  3350 ;;		Nothing
  3351 ;; This function is called by:
  3352 ;;		_main
  3353 ;; This function uses a non-reentrant model
  3354 ;;
  3355                           
  3356                           	psect	text21
  3357   00397C                     __ptext21:
  3358                           	callstack 0
  3359   00397C                     _initUSART4:
  3360                           	callstack 29
  3361   00397C                     
  3362                           ;serial.c: 5:     RC0PPS = 0x12;
  3363   00397C  0E12               	movlw	18
  3364   00397E  010E               	movlb	14	; () banked
  3365   003980  6F62               	movwf	98,b	;volatile
  3366                           
  3367                           ;serial.c: 6:     RX4PPS = 0x11;
  3368   003982  0E11               	movlw	17
  3369   003984  6F15               	movwf	21,b	;volatile
  3370   003986                     
  3371                           ; BSR set to: 14
  3372                           ;serial.c: 7:     BAUD4CONbits.BRG16 = 0;
  3373   003986  97E9               	bcf	233,3,b	;volatile
  3374   003988                     
  3375                           ; BSR set to: 14
  3376                           ;serial.c: 8:     TX4STAbits.BRGH = 0;
  3377   003988  95E8               	bcf	232,2,b	;volatile
  3378                           
  3379                           ;serial.c: 9:     SP4BRGL = 51;
  3380   00398A  0E33               	movlw	51
  3381   00398C  6FE5               	movwf	229,b	;volatile
  3382                           
  3383                           ;serial.c: 10:     SP4BRGH = 0;
  3384   00398E  0E00               	movlw	0
  3385   003990  6FE6               	movwf	230,b	;volatile
  3386   003992                     
  3387                           ; BSR set to: 14
  3388                           ;serial.c: 12:     RC4STAbits.CREN = 1;
  3389   003992  89E7               	bsf	231,4,b	;volatile
  3390   003994                     
  3391                           ; BSR set to: 14
  3392                           ;serial.c: 13:     TX4STAbits.TXEN = 1;
  3393   003994  8BE8               	bsf	232,5,b	;volatile
  3394   003996                     
  3395                           ; BSR set to: 14
  3396                           ;serial.c: 14:     RC4STAbits.SPEN = 1;
  3397   003996  8FE7               	bsf	231,7,b	;volatile
  3398   003998                     
  3399                           ; BSR set to: 14
  3400   003998  0012               	return		;funcret
  3401   00399A                     __end_of_initUSART4:
  3402                           	callstack 0
  3403                           
  3404 ;; *************** function _colour_rel *****************
  3405 ;; Defined at:
  3406 ;;		line 112 in file "color.c"
  3407 ;; Parameters:    Size  Location     Type
  3408 ;;  vals            2   49[COMRAM] PTR struct RGB
  3409 ;;		 -> vals(8), 
  3410 ;;  rel             2   51[COMRAM] PTR struct RGB_rel
  3411 ;;		 -> rel(12), 
  3412 ;; Auto vars:     Size  Location     Type
  3413 ;;  B               4   73[COMRAM] float 
  3414 ;;  G               4   69[COMRAM] float 
  3415 ;;  R               4   65[COMRAM] float 
  3416 ;;  L               4   53[COMRAM] float 
  3417 ;; Return value:  Size  Location     Type
  3418 ;;                  1    wreg      void 
  3419 ;; Registers used:
  3420 ;;		wreg, fsr2l, fsr2h, status,2, status,0, cstack
  3421 ;; Tracked objects:
  3422 ;;		On entry : 0/0
  3423 ;;		On exit  : 0/0
  3424 ;;		Unchanged: 0/0
  3425 ;; Data sizes:     COMRAM   BANK0   BANK1   BANK2   BANK3   BANK4   BANK5   BANK6   BANK7   BANK8   BANK9  BANK10  BANK1
      +1  BANK12  BANK13
  3426 ;;      Params:         4       0       0       0       0       0       0       0       0       0       0       0       
      +0       0       0
  3427 ;;      Locals:        24       0       0       0       0       0       0       0       0       0       0       0       
      +0       0       0
  3428 ;;      Temps:          0       0       0       0       0       0       0       0       0       0       0       0       
      +0       0       0
  3429 ;;      Totals:        28       0       0       0       0       0       0       0       0       0       0       0       
      +0       0       0
  3430 ;;Total ram usage:       28 bytes
  3431 ;; Hardware stack levels used: 1
  3432 ;; Hardware stack levels required when called: 2
  3433 ;; This function calls:
  3434 ;;		___fladd
  3435 ;;		___fldiv
  3436 ;;		___xxtofl
  3437 ;; This function is called by:
  3438 ;;		_main
  3439 ;; This function uses a non-reentrant model
  3440 ;;
  3441                           
  3442                           	psect	text22
  3443   00255A                     __ptext22:
  3444                           	callstack 0
  3445   00255A                     _colour_rel:
  3446                           	callstack 28
  3447   00255A                     
  3448                           ;color.c: 113:     float R = vals->R;
  3449   00255A  C032  FFD9         	movff	colour_rel@vals,fsr2l
  3450   00255E  C033  FFDA         	movff	colour_rel@vals+1,fsr2h
  3451   002562  CFDE F001          	movff	postinc2,___xxtofl@val
  3452   002566  CFDD F002          	movff	postdec2,___xxtofl@val+1
  3453   00256A  0E00               	movlw	0
  3454   00256C  BE02               	btfsc	(___xxtofl@val+1)^0,7,c
  3455   00256E  0EFF               	movlw	-1
  3456   002570  6E03               	movwf	(___xxtofl@val+2)^0,c
  3457   002572  6E04               	movwf	(___xxtofl@val+3)^0,c
  3458   002574  0E01               	movlw	1
  3459   002576  EC83  F015         	call	___xxtofl
  3460   00257A  C001  F042         	movff	?___xxtofl,colour_rel@R
  3461   00257E  C002  F043         	movff	?___xxtofl+1,colour_rel@R+1
  3462   002582  C003  F044         	movff	?___xxtofl+2,colour_rel@R+2
  3463   002586  C004  F045         	movff	?___xxtofl+3,colour_rel@R+3
  3464                           
  3465                           ;color.c: 114:     float G = vals->G;
  3466   00258A  EE20 F002          	lfsr	2,2
  3467   00258E  5032               	movf	colour_rel@vals^0,w,c
  3468   002590  26D9               	addwf	fsr2l,f,c
  3469   002592  5033               	movf	(colour_rel@vals+1)^0,w,c
  3470   002594  22DA               	addwfc	fsr2h,f,c
  3471   002596  CFDE F001          	movff	postinc2,___xxtofl@val
  3472   00259A  CFDD F002          	movff	postdec2,___xxtofl@val+1
  3473   00259E  0E00               	movlw	0
  3474   0025A0  BE02               	btfsc	(___xxtofl@val+1)^0,7,c
  3475   0025A2  0EFF               	movlw	-1
  3476   0025A4  6E03               	movwf	(___xxtofl@val+2)^0,c
  3477   0025A6  6E04               	movwf	(___xxtofl@val+3)^0,c
  3478   0025A8  0E01               	movlw	1
  3479   0025AA  EC83  F015         	call	___xxtofl
  3480   0025AE  C001  F046         	movff	?___xxtofl,colour_rel@G
  3481   0025B2  C002  F047         	movff	?___xxtofl+1,colour_rel@G+1
  3482   0025B6  C003  F048         	movff	?___xxtofl+2,colour_rel@G+2
  3483   0025BA  C004  F049         	movff	?___xxtofl+3,colour_rel@G+3
  3484                           
  3485                           ;color.c: 115:     float B = vals->B;
  3486   0025BE  EE20 F004          	lfsr	2,4
  3487   0025C2  5032               	movf	colour_rel@vals^0,w,c
  3488   0025C4  26D9               	addwf	fsr2l,f,c
  3489   0025C6  5033               	movf	(colour_rel@vals+1)^0,w,c
  3490   0025C8  22DA               	addwfc	fsr2h,f,c
  3491   0025CA  CFDE F001          	movff	postinc2,___xxtofl@val
  3492   0025CE  CFDD F002          	movff	postdec2,___xxtofl@val+1
  3493   0025D2  0E00               	movlw	0
  3494   0025D4  BE02               	btfsc	(___xxtofl@val+1)^0,7,c
  3495   0025D6  0EFF               	movlw	-1
  3496   0025D8  6E03               	movwf	(___xxtofl@val+2)^0,c
  3497   0025DA  6E04               	movwf	(___xxtofl@val+3)^0,c
  3498   0025DC  0E01               	movlw	1
  3499   0025DE  EC83  F015         	call	___xxtofl
  3500   0025E2  C001  F04A         	movff	?___xxtofl,colour_rel@B
  3501   0025E6  C002  F04B         	movff	?___xxtofl+1,colour_rel@B+1
  3502   0025EA  C003  F04C         	movff	?___xxtofl+2,colour_rel@B+2
  3503   0025EE  C004  F04D         	movff	?___xxtofl+3,colour_rel@B+3
  3504                           
  3505                           ;color.c: 116:     float L = vals->L;
  3506   0025F2  EE20 F006          	lfsr	2,6
  3507   0025F6  5032               	movf	colour_rel@vals^0,w,c
  3508   0025F8  26D9               	addwf	fsr2l,f,c
  3509   0025FA  5033               	movf	(colour_rel@vals+1)^0,w,c
  3510   0025FC  22DA               	addwfc	fsr2h,f,c
  3511   0025FE  CFDE F001          	movff	postinc2,___xxtofl@val
  3512   002602  CFDD F002          	movff	postdec2,___xxtofl@val+1
  3513   002606  0E00               	movlw	0
  3514   002608  BE02               	btfsc	(___xxtofl@val+1)^0,7,c
  3515   00260A  0EFF               	movlw	-1
  3516   00260C  6E03               	movwf	(___xxtofl@val+2)^0,c
  3517   00260E  6E04               	movwf	(___xxtofl@val+3)^0,c
  3518   002610  0E01               	movlw	1
  3519   002612  EC83  F015         	call	___xxtofl
  3520   002616  C001  F036         	movff	?___xxtofl,colour_rel@L
  3521   00261A  C002  F037         	movff	?___xxtofl+1,colour_rel@L+1
  3522   00261E  C003  F038         	movff	?___xxtofl+2,colour_rel@L+2
  3523   002622  C004  F039         	movff	?___xxtofl+3,colour_rel@L+3
  3524   002626                     
  3525                           ;color.c: 117:     rel -> R = R/(R+G+B+L);
  3526   002626  C046  F005         	movff	colour_rel@G,___fladd@a
  3527   00262A  C047  F006         	movff	colour_rel@G+1,___fladd@a+1
  3528   00262E  C048  F007         	movff	colour_rel@G+2,___fladd@a+2
  3529   002632  C049  F008         	movff	colour_rel@G+3,___fladd@a+3
  3530   002636  C042  F001         	movff	colour_rel@R,___fladd@b
  3531   00263A  C043  F002         	movff	colour_rel@R+1,___fladd@b+1
  3532   00263E  C044  F003         	movff	colour_rel@R+2,___fladd@b+2
  3533   002642  C045  F004         	movff	colour_rel@R+3,___fladd@b+3
  3534   002646  EC6B  F00C         	call	___fladd	;wreg free
  3535   00264A  C001  F03A         	movff	?___fladd,_colour_rel$1738
  3536   00264E  C002  F03B         	movff	?___fladd+1,_colour_rel$1738+1
  3537   002652  C003  F03C         	movff	?___fladd+2,_colour_rel$1738+2
  3538   002656  C004  F03D         	movff	?___fladd+3,_colour_rel$1738+3
  3539   00265A                     
  3540                           ;color.c: 117:     rel -> R = R/(R+G+B+L);
  3541   00265A  C04A  F005         	movff	colour_rel@B,___fladd@a
  3542   00265E  C04B  F006         	movff	colour_rel@B+1,___fladd@a+1
  3543   002662  C04C  F007         	movff	colour_rel@B+2,___fladd@a+2
  3544   002666  C04D  F008         	movff	colour_rel@B+3,___fladd@a+3
  3545   00266A  C03A  F001         	movff	_colour_rel$1738,___fladd@b
  3546   00266E  C03B  F002         	movff	_colour_rel$1738+1,___fladd@b+1
  3547   002672  C03C  F003         	movff	_colour_rel$1738+2,___fladd@b+2
  3548   002676  C03D  F004         	movff	_colour_rel$1738+3,___fladd@b+3
  3549   00267A  EC6B  F00C         	call	___fladd	;wreg free
  3550   00267E  C001  F03E         	movff	?___fladd,_colour_rel$1739
  3551   002682  C002  F03F         	movff	?___fladd+1,_colour_rel$1739+1
  3552   002686  C003  F040         	movff	?___fladd+2,_colour_rel$1739+2
  3553   00268A  C004  F041         	movff	?___fladd+3,_colour_rel$1739+3
  3554                           
  3555                           ;color.c: 117:     rel -> R = R/(R+G+B+L);
  3556   00268E  C042  F019         	movff	colour_rel@R,___fldiv@b
  3557   002692  C043  F01A         	movff	colour_rel@R+1,___fldiv@b+1
  3558   002696  C044  F01B         	movff	colour_rel@R+2,___fldiv@b+2
  3559   00269A  C045  F01C         	movff	colour_rel@R+3,___fldiv@b+3
  3560   00269E  C036  F005         	movff	colour_rel@L,___fladd@a
  3561   0026A2  C037  F006         	movff	colour_rel@L+1,___fladd@a+1
  3562   0026A6  C038  F007         	movff	colour_rel@L+2,___fladd@a+2
  3563   0026AA  C039  F008         	movff	colour_rel@L+3,___fladd@a+3
  3564   0026AE  C03E  F001         	movff	_colour_rel$1739,___fladd@b
  3565   0026B2  C03F  F002         	movff	_colour_rel$1739+1,___fladd@b+1
  3566   0026B6  C040  F003         	movff	_colour_rel$1739+2,___fladd@b+2
  3567   0026BA  C041  F004         	movff	_colour_rel$1739+3,___fladd@b+3
  3568   0026BE  EC6B  F00C         	call	___fladd	;wreg free
  3569   0026C2  C001  F01D         	movff	?___fladd,___fldiv@a
  3570   0026C6  C002  F01E         	movff	?___fladd+1,___fldiv@a+1
  3571   0026CA  C003  F01F         	movff	?___fladd+2,___fldiv@a+2
  3572   0026CE  C004  F020         	movff	?___fladd+3,___fldiv@a+3
  3573   0026D2  ECE0  F010         	call	___fldiv	;wreg free
  3574   0026D6  C034  FFD9         	movff	colour_rel@rel,fsr2l
  3575   0026DA  C035  FFDA         	movff	colour_rel@rel+1,fsr2h
  3576   0026DE  C019  FFDE         	movff	?___fldiv,postinc2
  3577   0026E2  C01A  FFDE         	movff	?___fldiv+1,postinc2
  3578   0026E6  C01B  FFDE         	movff	?___fldiv+2,postinc2
  3579   0026EA  C01C  FFDE         	movff	?___fldiv+3,postinc2
  3580   0026EE                     
  3581                           ;color.c: 118:     rel -> B = B/(R+G+B+L);
  3582   0026EE  C046  F005         	movff	colour_rel@G,___fladd@a
  3583   0026F2  C047  F006         	movff	colour_rel@G+1,___fladd@a+1
  3584   0026F6  C048  F007         	movff	colour_rel@G+2,___fladd@a+2
  3585   0026FA  C049  F008         	movff	colour_rel@G+3,___fladd@a+3
  3586   0026FE  C042  F001         	movff	colour_rel@R,___fladd@b
  3587   002702  C043  F002         	movff	colour_rel@R+1,___fladd@b+1
  3588   002706  C044  F003         	movff	colour_rel@R+2,___fladd@b+2
  3589   00270A  C045  F004         	movff	colour_rel@R+3,___fladd@b+3
  3590   00270E  EC6B  F00C         	call	___fladd	;wreg free
  3591   002712  C001  F03A         	movff	?___fladd,_colour_rel$1738
  3592   002716  C002  F03B         	movff	?___fladd+1,_colour_rel$1738+1
  3593   00271A  C003  F03C         	movff	?___fladd+2,_colour_rel$1738+2
  3594   00271E  C004  F03D         	movff	?___fladd+3,_colour_rel$1738+3
  3595   002722                     
  3596                           ;color.c: 118:     rel -> B = B/(R+G+B+L);
  3597   002722  C04A  F005         	movff	colour_rel@B,___fladd@a
  3598   002726  C04B  F006         	movff	colour_rel@B+1,___fladd@a+1
  3599   00272A  C04C  F007         	movff	colour_rel@B+2,___fladd@a+2
  3600   00272E  C04D  F008         	movff	colour_rel@B+3,___fladd@a+3
  3601   002732  C03A  F001         	movff	_colour_rel$1738,___fladd@b
  3602   002736  C03B  F002         	movff	_colour_rel$1738+1,___fladd@b+1
  3603   00273A  C03C  F003         	movff	_colour_rel$1738+2,___fladd@b+2
  3604   00273E  C03D  F004         	movff	_colour_rel$1738+3,___fladd@b+3
  3605   002742  EC6B  F00C         	call	___fladd	;wreg free
  3606   002746  C001  F03E         	movff	?___fladd,_colour_rel$1739
  3607   00274A  C002  F03F         	movff	?___fladd+1,_colour_rel$1739+1
  3608   00274E  C003  F040         	movff	?___fladd+2,_colour_rel$1739+2
  3609   002752  C004  F041         	movff	?___fladd+3,_colour_rel$1739+3
  3610                           
  3611                           ;color.c: 118:     rel -> B = B/(R+G+B+L);
  3612   002756  C04A  F019         	movff	colour_rel@B,___fldiv@b
  3613   00275A  C04B  F01A         	movff	colour_rel@B+1,___fldiv@b+1
  3614   00275E  C04C  F01B         	movff	colour_rel@B+2,___fldiv@b+2
  3615   002762  C04D  F01C         	movff	colour_rel@B+3,___fldiv@b+3
  3616   002766  C036  F005         	movff	colour_rel@L,___fladd@a
  3617   00276A  C037  F006         	movff	colour_rel@L+1,___fladd@a+1
  3618   00276E  C038  F007         	movff	colour_rel@L+2,___fladd@a+2
  3619   002772  C039  F008         	movff	colour_rel@L+3,___fladd@a+3
  3620   002776  C03E  F001         	movff	_colour_rel$1739,___fladd@b
  3621   00277A  C03F  F002         	movff	_colour_rel$1739+1,___fladd@b+1
  3622   00277E  C040  F003         	movff	_colour_rel$1739+2,___fladd@b+2
  3623   002782  C041  F004         	movff	_colour_rel$1739+3,___fladd@b+3
  3624   002786  EC6B  F00C         	call	___fladd	;wreg free
  3625   00278A  C001  F01D         	movff	?___fladd,___fldiv@a
  3626   00278E  C002  F01E         	movff	?___fladd+1,___fldiv@a+1
  3627   002792  C003  F01F         	movff	?___fladd+2,___fldiv@a+2
  3628   002796  C004  F020         	movff	?___fladd+3,___fldiv@a+3
  3629   00279A  ECE0  F010         	call	___fldiv	;wreg free
  3630   00279E  EE20 F008          	lfsr	2,8
  3631   0027A2  5034               	movf	colour_rel@rel^0,w,c
  3632   0027A4  26D9               	addwf	fsr2l,f,c
  3633   0027A6  5035               	movf	(colour_rel@rel+1)^0,w,c
  3634   0027A8  22DA               	addwfc	fsr2h,f,c
  3635   0027AA  C019  FFDE         	movff	?___fldiv,postinc2
  3636   0027AE  C01A  FFDE         	movff	?___fldiv+1,postinc2
  3637   0027B2  C01B  FFDE         	movff	?___fldiv+2,postinc2
  3638   0027B6  C01C  FFDE         	movff	?___fldiv+3,postinc2
  3639   0027BA                     
  3640                           ;color.c: 119:     rel -> G = G/(R+G+B+L);
  3641   0027BA  C046  F005         	movff	colour_rel@G,___fladd@a
  3642   0027BE  C047  F006         	movff	colour_rel@G+1,___fladd@a+1
  3643   0027C2  C048  F007         	movff	colour_rel@G+2,___fladd@a+2
  3644   0027C6  C049  F008         	movff	colour_rel@G+3,___fladd@a+3
  3645   0027CA  C042  F001         	movff	colour_rel@R,___fladd@b
  3646   0027CE  C043  F002         	movff	colour_rel@R+1,___fladd@b+1
  3647   0027D2  C044  F003         	movff	colour_rel@R+2,___fladd@b+2
  3648   0027D6  C045  F004         	movff	colour_rel@R+3,___fladd@b+3
  3649   0027DA  EC6B  F00C         	call	___fladd	;wreg free
  3650   0027DE  C001  F03A         	movff	?___fladd,_colour_rel$1738
  3651   0027E2  C002  F03B         	movff	?___fladd+1,_colour_rel$1738+1
  3652   0027E6  C003  F03C         	movff	?___fladd+2,_colour_rel$1738+2
  3653   0027EA  C004  F03D         	movff	?___fladd+3,_colour_rel$1738+3
  3654   0027EE                     
  3655                           ;color.c: 119:     rel -> G = G/(R+G+B+L);
  3656   0027EE  C04A  F005         	movff	colour_rel@B,___fladd@a
  3657   0027F2  C04B  F006         	movff	colour_rel@B+1,___fladd@a+1
  3658   0027F6  C04C  F007         	movff	colour_rel@B+2,___fladd@a+2
  3659   0027FA  C04D  F008         	movff	colour_rel@B+3,___fladd@a+3
  3660   0027FE  C03A  F001         	movff	_colour_rel$1738,___fladd@b
  3661   002802  C03B  F002         	movff	_colour_rel$1738+1,___fladd@b+1
  3662   002806  C03C  F003         	movff	_colour_rel$1738+2,___fladd@b+2
  3663   00280A  C03D  F004         	movff	_colour_rel$1738+3,___fladd@b+3
  3664   00280E  EC6B  F00C         	call	___fladd	;wreg free
  3665   002812  C001  F03E         	movff	?___fladd,_colour_rel$1739
  3666   002816  C002  F03F         	movff	?___fladd+1,_colour_rel$1739+1
  3667   00281A  C003  F040         	movff	?___fladd+2,_colour_rel$1739+2
  3668   00281E  C004  F041         	movff	?___fladd+3,_colour_rel$1739+3
  3669                           
  3670                           ;color.c: 119:     rel -> G = G/(R+G+B+L);
  3671   002822  C046  F019         	movff	colour_rel@G,___fldiv@b
  3672   002826  C047  F01A         	movff	colour_rel@G+1,___fldiv@b+1
  3673   00282A  C048  F01B         	movff	colour_rel@G+2,___fldiv@b+2
  3674   00282E  C049  F01C         	movff	colour_rel@G+3,___fldiv@b+3
  3675   002832  C036  F005         	movff	colour_rel@L,___fladd@a
  3676   002836  C037  F006         	movff	colour_rel@L+1,___fladd@a+1
  3677   00283A  C038  F007         	movff	colour_rel@L+2,___fladd@a+2
  3678   00283E  C039  F008         	movff	colour_rel@L+3,___fladd@a+3
  3679   002842  C03E  F001         	movff	_colour_rel$1739,___fladd@b
  3680   002846  C03F  F002         	movff	_colour_rel$1739+1,___fladd@b+1
  3681   00284A  C040  F003         	movff	_colour_rel$1739+2,___fladd@b+2
  3682   00284E  C041  F004         	movff	_colour_rel$1739+3,___fladd@b+3
  3683   002852  EC6B  F00C         	call	___fladd	;wreg free
  3684   002856  C001  F01D         	movff	?___fladd,___fldiv@a
  3685   00285A  C002  F01E         	movff	?___fladd+1,___fldiv@a+1
  3686   00285E  C003  F01F         	movff	?___fladd+2,___fldiv@a+2
  3687   002862  C004  F020         	movff	?___fladd+3,___fldiv@a+3
  3688   002866  ECE0  F010         	call	___fldiv	;wreg free
  3689   00286A  EE20 F004          	lfsr	2,4
  3690   00286E  5034               	movf	colour_rel@rel^0,w,c
  3691   002870  26D9               	addwf	fsr2l,f,c
  3692   002872  5035               	movf	(colour_rel@rel+1)^0,w,c
  3693   002874  22DA               	addwfc	fsr2h,f,c
  3694   002876  C019  FFDE         	movff	?___fldiv,postinc2
  3695   00287A  C01A  FFDE         	movff	?___fldiv+1,postinc2
  3696   00287E  C01B  FFDE         	movff	?___fldiv+2,postinc2
  3697   002882  C01C  FFDE         	movff	?___fldiv+3,postinc2
  3698   002886  0012               	return		;funcret
  3699   002888                     __end_of_colour_rel:
  3700                           	callstack 0
  3701                           
  3702 ;; *************** function _color_click_init *****************
  3703 ;; Defined at:
  3704 ;;		line 5 in file "color.c"
  3705 ;; Parameters:    Size  Location     Type
  3706 ;;		None
  3707 ;; Auto vars:     Size  Location     Type
  3708 ;;		None
  3709 ;; Return value:  Size  Location     Type
  3710 ;;                  1    wreg      void 
  3711 ;; Registers used:
  3712 ;;		wreg, status,2, status,0, cstack
  3713 ;; Tracked objects:
  3714 ;;		On entry : 0/0
  3715 ;;		On exit  : 0/0
  3716 ;;		Unchanged: 0/0
  3717 ;; Data sizes:     COMRAM   BANK0   BANK1   BANK2   BANK3   BANK4   BANK5   BANK6   BANK7   BANK8   BANK9  BANK10  BANK1
      +1  BANK12  BANK13
  3718 ;;      Params:         0       0       0       0       0       0       0       0       0       0       0       0       
      +0       0       0
  3719 ;;      Locals:         0       0       0       0       0       0       0       0       0       0       0       0       
      +0       0       0
  3720 ;;      Temps:          1       0       0       0       0       0       0       0       0       0       0       0       
      +0       0       0
  3721 ;;      Totals:         1       0       0       0       0       0       0       0       0       0       0       0       
      +0       0       0
  3722 ;;Total ram usage:        1 bytes
  3723 ;; Hardware stack levels used: 1
  3724 ;; Hardware stack levels required when called: 4
  3725 ;; This function calls:
  3726 ;;		_I2C_2_Master_Init
  3727 ;;		_color_writetoaddr
  3728 ;; This function is called by:
  3729 ;;		_main
  3730 ;; This function uses a non-reentrant model
  3731 ;;
  3732                           
  3733                           	psect	text23
  3734   0035EE                     __ptext23:
  3735                           	callstack 0
  3736   0035EE                     _color_click_init:
  3737                           	callstack 26
  3738   0035EE                     
  3739                           ;color.c: 8:     I2C_2_Master_Init();
  3740   0035EE  EC85  F01C         	call	_I2C_2_Master_Init	;wreg free
  3741   0035F2                     
  3742                           ;color.c: 10:   color_writetoaddr(0x00, 0x01);
  3743   0035F2  0E01               	movlw	1
  3744   0035F4  6E03               	movwf	color_writetoaddr@value^0,c
  3745   0035F6  0E00               	movlw	0
  3746   0035F8  ECAE  F01C         	call	_color_writetoaddr
  3747   0035FC                     
  3748                           ;color.c: 11:     _delay((unsigned long)((3)*(64000000/4000.0)));
  3749   0035FC  0E3F               	movlw	63
  3750   0035FE  6E05               	movwf	??_color_click_init^0,c
  3751   003600  0E55               	movlw	85
  3752   003602                     u3617:
  3753   003602  2EE8               	decfsz	wreg,f,c
  3754   003604  D7FE               	bra	u3617
  3755   003606  2E05               	decfsz	??_color_click_init^0,f,c
  3756   003608  D7FC               	bra	u3617
  3757   00360A  F000               	nop	
  3758   00360C                     
  3759                           ;color.c: 13:  color_writetoaddr(0x00, 0x03);
  3760   00360C  0E03               	movlw	3
  3761   00360E  6E03               	movwf	color_writetoaddr@value^0,c
  3762   003610  0E00               	movlw	0
  3763   003612  ECAE  F01C         	call	_color_writetoaddr
  3764   003616                     
  3765                           ;color.c: 15:  color_writetoaddr(0x01, 0xD5);
  3766   003616  0ED5               	movlw	213
  3767   003618  6E03               	movwf	color_writetoaddr@value^0,c
  3768   00361A  0E01               	movlw	1
  3769   00361C  ECAE  F01C         	call	_color_writetoaddr
  3770   003620                     
  3771                           ;color.c: 17:     color_writetoaddr(0x0F, 0x00);
  3772   003620  0E00               	movlw	0
  3773   003622  6E03               	movwf	color_writetoaddr@value^0,c
  3774   003624  0E0F               	movlw	15
  3775   003626  ECAE  F01C         	call	_color_writetoaddr
  3776   00362A                     
  3777                           ;color.c: 19:     TRISGbits.TRISG1 = 0;
  3778   00362A  9287               	bcf	135,1,c	;volatile
  3779   00362C                     
  3780                           ;color.c: 20:     TRISAbits.TRISA4 = 0;
  3781   00362C  9881               	bcf	129,4,c	;volatile
  3782   00362E                     
  3783                           ;color.c: 21:     TRISFbits.TRISF7 = 0;
  3784   00362E  9E86               	bcf	134,7,c	;volatile
  3785   003630                     
  3786                           ;color.c: 23:     TRISDbits.TRISD3 = 0;
  3787   003630  9684               	bcf	132,3,c	;volatile
  3788   003632                     
  3789                           ;color.c: 24:     TRISDbits.TRISD4 = 0;
  3790   003632  9884               	bcf	132,4,c	;volatile
  3791   003634                     
  3792                           ;color.c: 26:     LATGbits.LATG1=0;
  3793   003634  927F               	bcf	127,1,c	;volatile
  3794   003636                     
  3795                           ;color.c: 27:     LATFbits.LATF7=0;
  3796   003636  9E7E               	bcf	126,7,c	;volatile
  3797   003638                     
  3798                           ;color.c: 28:     LATAbits.LATA4=0;
  3799   003638  9879               	bcf	121,4,c	;volatile
  3800   00363A                     
  3801                           ;color.c: 30:     LATDbits.LATD3=0;
  3802   00363A  967C               	bcf	124,3,c	;volatile
  3803   00363C                     
  3804                           ;color.c: 31:     LATDbits.LATD4=0;
  3805   00363C  987C               	bcf	124,4,c	;volatile
  3806   00363E  0012               	return		;funcret
  3807   003640                     __end_of_color_click_init:
  3808                           	callstack 0
  3809                           
  3810 ;; *************** function _color_writetoaddr *****************
  3811 ;; Defined at:
  3812 ;;		line 39 in file "color.c"
  3813 ;; Parameters:    Size  Location     Type
  3814 ;;  address         1    wreg     unsigned char 
  3815 ;;  value           1    2[COMRAM] unsigned char 
  3816 ;; Auto vars:     Size  Location     Type
  3817 ;;  address         1    3[COMRAM] unsigned char 
  3818 ;; Return value:  Size  Location     Type
  3819 ;;                  1    wreg      void 
  3820 ;; Registers used:
  3821 ;;		wreg, status,2, status,0, cstack
  3822 ;; Tracked objects:
  3823 ;;		On entry : 0/0
  3824 ;;		On exit  : 0/0
  3825 ;;		Unchanged: 0/0
  3826 ;; Data sizes:     COMRAM   BANK0   BANK1   BANK2   BANK3   BANK4   BANK5   BANK6   BANK7   BANK8   BANK9  BANK10  BANK1
      +1  BANK12  BANK13
  3827 ;;      Params:         1       0       0       0       0       0       0       0       0       0       0       0       
      +0       0       0
  3828 ;;      Locals:         1       0       0       0       0       0       0       0       0       0       0       0       
      +0       0       0
  3829 ;;      Temps:          0       0       0       0       0       0       0       0       0       0       0       0       
      +0       0       0
  3830 ;;      Totals:         2       0       0       0       0       0       0       0       0       0       0       0       
      +0       0       0
  3831 ;;Total ram usage:        2 bytes
  3832 ;; Hardware stack levels used: 1
  3833 ;; Hardware stack levels required when called: 3
  3834 ;; This function calls:
  3835 ;;		_I2C_2_Master_Start
  3836 ;;		_I2C_2_Master_Stop
  3837 ;;		_I2C_2_Master_Write
  3838 ;; This function is called by:
  3839 ;;		_color_click_init
  3840 ;; This function uses a non-reentrant model
  3841 ;;
  3842                           
  3843                           	psect	text24
  3844   00395C                     __ptext24:
  3845                           	callstack 0
  3846   00395C                     _color_writetoaddr:
  3847                           	callstack 26
  3848                           
  3849                           ;incstack = 0
  3850                           ;color_writetoaddr@address stored from wreg
  3851   00395C  6E04               	movwf	color_writetoaddr@address^0,c
  3852   00395E                     
  3853                           ;color.c: 40:     I2C_2_Master_Start();
  3854   00395E  ECE9  F01C         	call	_I2C_2_Master_Start	;wreg free
  3855                           
  3856                           ;color.c: 41:     I2C_2_Master_Write(0x52 | 0x00);
  3857   003962  0E52               	movlw	82
  3858   003964  ECD9  F01C         	call	_I2C_2_Master_Write
  3859                           
  3860                           ;color.c: 42:     I2C_2_Master_Write(0x80 | address);
  3861   003968  5004               	movf	color_writetoaddr@address^0,w,c
  3862   00396A  0980               	iorlw	128
  3863   00396C  ECD9  F01C         	call	_I2C_2_Master_Write
  3864                           
  3865                           ;color.c: 43:     I2C_2_Master_Write(value);
  3866   003970  5003               	movf	color_writetoaddr@value^0,w,c
  3867   003972  ECD9  F01C         	call	_I2C_2_Master_Write
  3868                           
  3869                           ;color.c: 44:     I2C_2_Master_Stop();
  3870   003976  ECE4  F01C         	call	_I2C_2_Master_Stop	;wreg free
  3871   00397A  0012               	return		;funcret
  3872   00397C                     __end_of_color_writetoaddr:
  3873                           	callstack 0
  3874                           
  3875 ;; *************** function _I2C_2_Master_Write *****************
  3876 ;; Defined at:
  3877 ;;		line 45 in file "i2c.c"
  3878 ;; Parameters:    Size  Location     Type
  3879 ;;  data_byte       1    wreg     unsigned char 
  3880 ;; Auto vars:     Size  Location     Type
  3881 ;;  data_byte       1    1[COMRAM] unsigned char 
  3882 ;; Return value:  Size  Location     Type
  3883 ;;                  1    wreg      void 
  3884 ;; Registers used:
  3885 ;;		wreg, status,2, status,0, cstack
  3886 ;; Tracked objects:
  3887 ;;		On entry : 0/0
  3888 ;;		On exit  : 0/0
  3889 ;;		Unchanged: 0/0
  3890 ;; Data sizes:     COMRAM   BANK0   BANK1   BANK2   BANK3   BANK4   BANK5   BANK6   BANK7   BANK8   BANK9  BANK10  BANK1
      +1  BANK12  BANK13
  3891 ;;      Params:         0       0       0       0       0       0       0       0       0       0       0       0       
      +0       0       0
  3892 ;;      Locals:         1       0       0       0       0       0       0       0       0       0       0       0       
      +0       0       0
  3893 ;;      Temps:          0       0       0       0       0       0       0       0       0       0       0       0       
      +0       0       0
  3894 ;;      Totals:         1       0       0       0       0       0       0       0       0       0       0       0       
      +0       0       0
  3895 ;;Total ram usage:        1 bytes
  3896 ;; Hardware stack levels used: 1
  3897 ;; Hardware stack levels required when called: 2
  3898 ;; This function calls:
  3899 ;;		_I2C_2_Master_Idle
  3900 ;; This function is called by:
  3901 ;;		_color_writetoaddr
  3902 ;;		_color_read_lum
  3903 ;;		_color_read_Red
  3904 ;;		_color_read_Green
  3905 ;;		_color_read_Blue
  3906 ;; This function uses a non-reentrant model
  3907 ;;
  3908                           
  3909                           	psect	text25
  3910   0039B2                     __ptext25:
  3911                           	callstack 0
  3912   0039B2                     _I2C_2_Master_Write:
  3913                           	callstack 26
  3914                           
  3915                           ;incstack = 0
  3916                           ;I2C_2_Master_Write@data_byte stored from wreg
  3917   0039B2  6E02               	movwf	I2C_2_Master_Write@data_byte^0,c
  3918   0039B4                     
  3919                           ;i2c.c: 45: void I2C_2_Master_Write(unsigned char data_byte);i2c.c: 46: {;i2c.c: 47:   I
      +                          2C_2_Master_Idle();
  3920   0039B4  EC9A  F01C         	call	_I2C_2_Master_Idle	;wreg free
  3921   0039B8                     
  3922                           ;i2c.c: 48:   SSP2BUF = data_byte;
  3923   0039B8  C002  FED5         	movff	I2C_2_Master_Write@data_byte,3797	;volatile
  3924   0039BC  0012               	return		;funcret
  3925   0039BE                     __end_of_I2C_2_Master_Write:
  3926                           	callstack 0
  3927                           
  3928 ;; *************** function _I2C_2_Master_Stop *****************
  3929 ;; Defined at:
  3930 ;;		line 39 in file "i2c.c"
  3931 ;; Parameters:    Size  Location     Type
  3932 ;;		None
  3933 ;; Auto vars:     Size  Location     Type
  3934 ;;		None
  3935 ;; Return value:  Size  Location     Type
  3936 ;;                  1    wreg      void 
  3937 ;; Registers used:
  3938 ;;		wreg, status,2, status,0, cstack
  3939 ;; Tracked objects:
  3940 ;;		On entry : 0/0
  3941 ;;		On exit  : 0/0
  3942 ;;		Unchanged: 0/0
  3943 ;; Data sizes:     COMRAM   BANK0   BANK1   BANK2   BANK3   BANK4   BANK5   BANK6   BANK7   BANK8   BANK9  BANK10  BANK1
      +1  BANK12  BANK13
  3944 ;;      Params:         0       0       0       0       0       0       0       0       0       0       0       0       
      +0       0       0
  3945 ;;      Locals:         0       0       0       0       0       0       0       0       0       0       0       0       
      +0       0       0
  3946 ;;      Temps:          0       0       0       0       0       0       0       0       0       0       0       0       
      +0       0       0
  3947 ;;      Totals:         0       0       0       0       0       0       0       0       0       0       0       0       
      +0       0       0
  3948 ;;Total ram usage:        0 bytes
  3949 ;; Hardware stack levels used: 1
  3950 ;; Hardware stack levels required when called: 2
  3951 ;; This function calls:
  3952 ;;		_I2C_2_Master_Idle
  3953 ;; This function is called by:
  3954 ;;		_color_writetoaddr
  3955 ;;		_color_read_lum
  3956 ;;		_color_read_Red
  3957 ;;		_color_read_Green
  3958 ;;		_color_read_Blue
  3959 ;; This function uses a non-reentrant model
  3960 ;;
  3961                           
  3962                           	psect	text26
  3963   0039C8                     __ptext26:
  3964                           	callstack 0
  3965   0039C8                     _I2C_2_Master_Stop:
  3966                           	callstack 26
  3967   0039C8                     
  3968                           ;i2c.c: 41:   I2C_2_Master_Idle();
  3969   0039C8  EC9A  F01C         	call	_I2C_2_Master_Idle	;wreg free
  3970   0039CC                     
  3971                           ;i2c.c: 42:   SSP2CON2bits.PEN = 1;
  3972   0039CC  010E               	movlb	14	; () banked
  3973   0039CE  85DA               	bsf	218,2,b	;volatile
  3974   0039D0                     
  3975                           ; BSR set to: 14
  3976   0039D0  0012               	return		;funcret
  3977   0039D2                     __end_of_I2C_2_Master_Stop:
  3978                           	callstack 0
  3979                           
  3980 ;; *************** function _I2C_2_Master_Start *****************
  3981 ;; Defined at:
  3982 ;;		line 27 in file "i2c.c"
  3983 ;; Parameters:    Size  Location     Type
  3984 ;;		None
  3985 ;; Auto vars:     Size  Location     Type
  3986 ;;		None
  3987 ;; Return value:  Size  Location     Type
  3988 ;;                  1    wreg      void 
  3989 ;; Registers used:
  3990 ;;		wreg, status,2, status,0, cstack
  3991 ;; Tracked objects:
  3992 ;;		On entry : 0/0
  3993 ;;		On exit  : 0/0
  3994 ;;		Unchanged: 0/0
  3995 ;; Data sizes:     COMRAM   BANK0   BANK1   BANK2   BANK3   BANK4   BANK5   BANK6   BANK7   BANK8   BANK9  BANK10  BANK1
      +1  BANK12  BANK13
  3996 ;;      Params:         0       0       0       0       0       0       0       0       0       0       0       0       
      +0       0       0
  3997 ;;      Locals:         0       0       0       0       0       0       0       0       0       0       0       0       
      +0       0       0
  3998 ;;      Temps:          0       0       0       0       0       0       0       0       0       0       0       0       
      +0       0       0
  3999 ;;      Totals:         0       0       0       0       0       0       0       0       0       0       0       0       
      +0       0       0
  4000 ;;Total ram usage:        0 bytes
  4001 ;; Hardware stack levels used: 1
  4002 ;; Hardware stack levels required when called: 2
  4003 ;; This function calls:
  4004 ;;		_I2C_2_Master_Idle
  4005 ;; This function is called by:
  4006 ;;		_color_writetoaddr
  4007 ;;		_color_read_lum
  4008 ;;		_color_read_Red
  4009 ;;		_color_read_Green
  4010 ;;		_color_read_Blue
  4011 ;; This function uses a non-reentrant model
  4012 ;;
  4013                           
  4014                           	psect	text27
  4015   0039D2                     __ptext27:
  4016                           	callstack 0
  4017   0039D2                     _I2C_2_Master_Start:
  4018                           	callstack 26
  4019   0039D2                     
  4020                           ;i2c.c: 29:   I2C_2_Master_Idle();
  4021   0039D2  EC9A  F01C         	call	_I2C_2_Master_Idle	;wreg free
  4022   0039D6                     
  4023                           ;i2c.c: 30:   SSP2CON2bits.SEN = 1;
  4024   0039D6  010E               	movlb	14	; () banked
  4025   0039D8  81DA               	bsf	218,0,b	;volatile
  4026   0039DA                     
  4027                           ; BSR set to: 14
  4028   0039DA  0012               	return		;funcret
  4029   0039DC                     __end_of_I2C_2_Master_Start:
  4030                           	callstack 0
  4031                           
  4032 ;; *************** function _I2C_2_Master_Idle *****************
  4033 ;; Defined at:
  4034 ;;		line 22 in file "i2c.c"
  4035 ;; Parameters:    Size  Location     Type
  4036 ;;		None
  4037 ;; Auto vars:     Size  Location     Type
  4038 ;;		None
  4039 ;; Return value:  Size  Location     Type
  4040 ;;                  1    wreg      void 
  4041 ;; Registers used:
  4042 ;;		wreg, status,2, status,0
  4043 ;; Tracked objects:
  4044 ;;		On entry : 0/0
  4045 ;;		On exit  : 0/0
  4046 ;;		Unchanged: 0/0
  4047 ;; Data sizes:     COMRAM   BANK0   BANK1   BANK2   BANK3   BANK4   BANK5   BANK6   BANK7   BANK8   BANK9  BANK10  BANK1
      +1  BANK12  BANK13
  4048 ;;      Params:         0       0       0       0       0       0       0       0       0       0       0       0       
      +0       0       0
  4049 ;;      Locals:         0       0       0       0       0       0       0       0       0       0       0       0       
      +0       0       0
  4050 ;;      Temps:          1       0       0       0       0       0       0       0       0       0       0       0       
      +0       0       0
  4051 ;;      Totals:         1       0       0       0       0       0       0       0       0       0       0       0       
      +0       0       0
  4052 ;;Total ram usage:        1 bytes
  4053 ;; Hardware stack levels used: 1
  4054 ;; Hardware stack levels required when called: 1
  4055 ;; This function calls:
  4056 ;;		Nothing
  4057 ;; This function is called by:
  4058 ;;		_I2C_2_Master_Start
  4059 ;;		_I2C_2_Master_RepStart
  4060 ;;		_I2C_2_Master_Stop
  4061 ;;		_I2C_2_Master_Write
  4062 ;;		_I2C_2_Master_Read
  4063 ;; This function uses a non-reentrant model
  4064 ;;
  4065                           
  4066                           	psect	text28
  4067   003934                     __ptext28:
  4068                           	callstack 0
  4069   003934                     _I2C_2_Master_Idle:
  4070                           	callstack 26
  4071   003934                     l132:
  4072   003934  010E               	movlb	14	; () banked
  4073   003936  B5D8               	btfsc	216,2,b	;volatile
  4074   003938  EFA0  F01C         	goto	u2041
  4075   00393C  EFA2  F01C         	goto	u2040
  4076   003940                     u2041:
  4077   003940  EF9A  F01C         	goto	l132
  4078   003944                     u2040:
  4079   003944                     
  4080                           ; BSR set to: 14
  4081   003944  CEDA F001          	movff	3802,??_I2C_2_Master_Idle	;volatile
  4082   003948  0E1F               	movlw	31
  4083   00394A  1601               	andwf	??_I2C_2_Master_Idle^0,f,c
  4084   00394C  A4D8               	btfss	status,2,c
  4085   00394E  EFAB  F01C         	goto	u2051
  4086   003952  EFAD  F01C         	goto	u2050
  4087   003956                     u2051:
  4088   003956  EF9A  F01C         	goto	l132
  4089   00395A                     u2050:
  4090   00395A                     
  4091                           ; BSR set to: 14
  4092   00395A  0012               	return		;funcret
  4093   00395C                     __end_of_I2C_2_Master_Idle:
  4094                           	callstack 0
  4095                           
  4096 ;; *************** function _I2C_2_Master_Init *****************
  4097 ;; Defined at:
  4098 ;;		line 4 in file "i2c.c"
  4099 ;; Parameters:    Size  Location     Type
  4100 ;;		None
  4101 ;; Auto vars:     Size  Location     Type
  4102 ;;		None
  4103 ;; Return value:  Size  Location     Type
  4104 ;;                  1    wreg      void 
  4105 ;; Registers used:
  4106 ;;		wreg, status,2
  4107 ;; Tracked objects:
  4108 ;;		On entry : 0/0
  4109 ;;		On exit  : 0/0
  4110 ;;		Unchanged: 0/0
  4111 ;; Data sizes:     COMRAM   BANK0   BANK1   BANK2   BANK3   BANK4   BANK5   BANK6   BANK7   BANK8   BANK9  BANK10  BANK1
      +1  BANK12  BANK13
  4112 ;;      Params:         0       0       0       0       0       0       0       0       0       0       0       0       
      +0       0       0
  4113 ;;      Locals:         0       0       0       0       0       0       0       0       0       0       0       0       
      +0       0       0
  4114 ;;      Temps:          0       0       0       0       0       0       0       0       0       0       0       0       
      +0       0       0
  4115 ;;      Totals:         0       0       0       0       0       0       0       0       0       0       0       0       
      +0       0       0
  4116 ;;Total ram usage:        0 bytes
  4117 ;; Hardware stack levels used: 1
  4118 ;; Hardware stack levels required when called: 1
  4119 ;; This function calls:
  4120 ;;		Nothing
  4121 ;; This function is called by:
  4122 ;;		_color_click_init
  4123 ;;		_main
  4124 ;; This function uses a non-reentrant model
  4125 ;;
  4126                           
  4127                           	psect	text29
  4128   00390A                     __ptext29:
  4129                           	callstack 0
  4130   00390A                     _I2C_2_Master_Init:
  4131                           	callstack 28
  4132   00390A                     
  4133                           ;i2c.c: 7:   SSP2CON1bits.SSPM= 0b1000;
  4134   00390A  010E               	movlb	14	; () banked
  4135   00390C  51D9               	movf	217,w,b	;volatile
  4136   00390E  0BF0               	andlw	-16
  4137   003910  0908               	iorlw	8
  4138   003912  6FD9               	movwf	217,b	;volatile
  4139   003914                     
  4140                           ; BSR set to: 14
  4141                           ;i2c.c: 8:   SSP2CON1bits.SSPEN = 1;
  4142   003914  8BD9               	bsf	217,5,b	;volatile
  4143                           
  4144                           ;i2c.c: 9:   SSP2ADD = (64000000/(4*100000))-1;
  4145   003916  0E9F               	movlw	159
  4146   003918  6FD6               	movwf	214,b	;volatile
  4147   00391A                     
  4148                           ; BSR set to: 14
  4149                           ;i2c.c: 12:   TRISDbits.TRISD5 = 1;
  4150   00391A  8A84               	bsf	132,5,c	;volatile
  4151   00391C                     
  4152                           ; BSR set to: 14
  4153                           ;i2c.c: 13:   TRISDbits.TRISD6 = 1;
  4154   00391C  8C84               	bsf	132,6,c	;volatile
  4155   00391E                     
  4156                           ; BSR set to: 14
  4157                           ;i2c.c: 14:   ANSELDbits.ANSELD5=0;
  4158   00391E  9BA7               	bcf	167,5,b	;volatile
  4159   003920                     
  4160                           ; BSR set to: 14
  4161                           ;i2c.c: 15:   ANSELDbits.ANSELD6=0;
  4162   003920  9DA7               	bcf	167,6,b	;volatile
  4163                           
  4164                           ;i2c.c: 16:   SSP2DATPPS=0x1D;
  4165   003922  0E1D               	movlw	29
  4166   003924  6F1D               	movwf	29,b	;volatile
  4167                           
  4168                           ;i2c.c: 17:   SSP2CLKPPS=0x1E;
  4169   003926  0E1E               	movlw	30
  4170   003928  6F1C               	movwf	28,b	;volatile
  4171                           
  4172                           ;i2c.c: 18:   RD5PPS=0x1C;
  4173   00392A  0E1C               	movlw	28
  4174   00392C  6F6F               	movwf	111,b	;volatile
  4175                           
  4176                           ;i2c.c: 19:   RD6PPS=0x1B;
  4177   00392E  0E1B               	movlw	27
  4178   003930  6F70               	movwf	112,b	;volatile
  4179   003932                     
  4180                           ; BSR set to: 14
  4181   003932  0012               	return		;funcret
  4182   003934                     __end_of_I2C_2_Master_Init:
  4183                           	callstack 0
  4184                           
  4185 ;; *************** function _Interrupts_init *****************
  4186 ;; Defined at:
  4187 ;;		line 12 in file "interrupts.c"
  4188 ;; Parameters:    Size  Location     Type
  4189 ;;		None
  4190 ;; Auto vars:     Size  Location     Type
  4191 ;;		None
  4192 ;; Return value:  Size  Location     Type
  4193 ;;                  1    wreg      void 
  4194 ;; Registers used:
  4195 ;;		None
  4196 ;; Tracked objects:
  4197 ;;		On entry : 0/0
  4198 ;;		On exit  : 0/0
  4199 ;;		Unchanged: 0/0
  4200 ;; Data sizes:     COMRAM   BANK0   BANK1   BANK2   BANK3   BANK4   BANK5   BANK6   BANK7   BANK8   BANK9  BANK10  BANK1
      +1  BANK12  BANK13
  4201 ;;      Params:         0       0       0       0       0       0       0       0       0       0       0       0       
      +0       0       0
  4202 ;;      Locals:         0       0       0       0       0       0       0       0       0       0       0       0       
      +0       0       0
  4203 ;;      Temps:          0       0       0       0       0       0       0       0       0       0       0       0       
      +0       0       0
  4204 ;;      Totals:         0       0       0       0       0       0       0       0       0       0       0       0       
      +0       0       0
  4205 ;;Total ram usage:        0 bytes
  4206 ;; Hardware stack levels used: 1
  4207 ;; Hardware stack levels required when called: 1
  4208 ;; This function calls:
  4209 ;;		Nothing
  4210 ;; This function is called by:
  4211 ;;		_main
  4212 ;; This function uses a non-reentrant model
  4213 ;;
  4214                           
  4215                           	psect	text30
  4216   0039E0                     __ptext30:
  4217                           	callstack 0
  4218   0039E0                     _Interrupts_init:
  4219                           	callstack 29
  4220   0039E0  0012               	return		;funcret
  4221   0039E2                     __end_of_Interrupts_init:
  4222                           	callstack 0
  4223                           
  4224 ;; *************** function _Colour_decider *****************
  4225 ;; Defined at:
  4226 ;;		line 123 in file "color.c"
  4227 ;; Parameters:    Size  Location     Type
  4228 ;;  vals            2   74[COMRAM] PTR struct RGB
  4229 ;;		 -> vals(8), 
  4230 ;;  rel             2   76[COMRAM] PTR struct RGB_rel
  4231 ;;		 -> rel(12), 
  4232 ;; Auto vars:     Size  Location     Type
  4233 ;;  RGB_col        12    6[BANK0 ] float [3]
  4234 ;;  Hue             4   28[BANK0 ] float 
  4235 ;;  Cmin            4   22[BANK0 ] float 
  4236 ;;  Cmax            4   18[BANK0 ] float 
  4237 ;;  i               2   26[BANK0 ] int 
  4238 ;;  Cmax_i          2    4[BANK0 ] int 
  4239 ;; Return value:  Size  Location     Type
  4240 ;;                  2   74[COMRAM] int 
  4241 ;; Registers used:
  4242 ;;		wreg, fsr2l, fsr2h, status,2, status,0, prodl, prodh, cstack
  4243 ;; Tracked objects:
  4244 ;;		On entry : 0/0
  4245 ;;		On exit  : 0/0
  4246 ;;		Unchanged: 0/0
  4247 ;; Data sizes:     COMRAM   BANK0   BANK1   BANK2   BANK3   BANK4   BANK5   BANK6   BANK7   BANK8   BANK9  BANK10  BANK1
      +1  BANK12  BANK13
  4248 ;;      Params:         4       0       0       0       0       0       0       0       0       0       0       0       
      +0       0       0
  4249 ;;      Locals:         0      32       0       0       0       0       0       0       0       0       0       0       
      +0       0       0
  4250 ;;      Temps:          2       0       0       0       0       0       0       0       0       0       0       0       
      +0       0       0
  4251 ;;      Totals:         6      32       0       0       0       0       0       0       0       0       0       0       
      +0       0       0
  4252 ;;Total ram usage:       38 bytes
  4253 ;; Hardware stack levels used: 1
  4254 ;; Hardware stack levels required when called: 3
  4255 ;; This function calls:
  4256 ;;		___fladd
  4257 ;;		___fldiv
  4258 ;;		___fleq
  4259 ;;		___flge
  4260 ;;		___flmul
  4261 ;;		___flsub
  4262 ;;		___xxtofl
  4263 ;; This function is called by:
  4264 ;;		_main
  4265 ;; This function uses a non-reentrant model
  4266 ;;
  4267                           
  4268                           	psect	text31
  4269   000E50                     __ptext31:
  4270                           	callstack 0
  4271   000E50                     _Colour_decider:
  4272                           	callstack 27
  4273   000E50                     
  4274                           ;color.c: 124:     float Cmax = 0;
  4275   000E50  0E00               	movlw	0
  4276   000E52  0100               	movlb	0	; () banked
  4277   000E54  6F72               	movwf	Colour_decider@Cmax& (0+255),b
  4278   000E56  0E00               	movlw	0
  4279   000E58  6F73               	movwf	(Colour_decider@Cmax+1)& (0+255),b
  4280   000E5A  0E00               	movlw	0
  4281   000E5C  6F74               	movwf	(Colour_decider@Cmax+2)& (0+255),b
  4282   000E5E  0E00               	movlw	0
  4283   000E60  6F75               	movwf	(Colour_decider@Cmax+3)& (0+255),b
  4284                           
  4285                           ;color.c: 125:     float Cmin= 100000;
  4286   000E62  0E00               	movlw	0
  4287   000E64  6F76               	movwf	Colour_decider@Cmin& (0+255),b
  4288   000E66  0E50               	movlw	80
  4289   000E68  6F77               	movwf	(Colour_decider@Cmin+1)& (0+255),b
  4290   000E6A  0EC3               	movlw	195
  4291   000E6C  6F78               	movwf	(Colour_decider@Cmin+2)& (0+255),b
  4292   000E6E  0E47               	movlw	71
  4293   000E70  6F79               	movwf	(Colour_decider@Cmin+3)& (0+255),b
  4294                           
  4295                           ;color.c: 126:     int Cmax_i =4;
  4296   000E72  0E00               	movlw	0
  4297   000E74  6F65               	movwf	(Colour_decider@Cmax_i+1)& (0+255),b
  4298   000E76  0E04               	movlw	4
  4299   000E78  6F64               	movwf	Colour_decider@Cmax_i& (0+255),b
  4300   000E7A                     
  4301                           ; BSR set to: 0
  4302                           ;color.c: 128:     int i;;color.c: 129:     float RGB_col[3]={vals->R,vals->G,vals->B};
  4303   000E7A  EE20  F066         	lfsr	2,Colour_decider@RGB_col
  4304   000E7E  0E0B               	movlw	11
  4305   000E80                     u3221:
  4306   000E80  6ADE               	clrf	postinc2,c
  4307   000E82  06E8               	decf	wreg,f,c
  4308   000E84  E2FD               	bc	u3221
  4309   000E86                     
  4310                           ; BSR set to: 0
  4311   000E86  C04B  FFD9         	movff	Colour_decider@vals,fsr2l
  4312   000E8A  C04C  FFDA         	movff	Colour_decider@vals+1,fsr2h
  4313   000E8E  CFDE F001          	movff	postinc2,___xxtofl@val
  4314   000E92  CFDD F002          	movff	postdec2,___xxtofl@val+1
  4315   000E96  0E00               	movlw	0
  4316   000E98  BE02               	btfsc	(___xxtofl@val+1)^0,7,c
  4317   000E9A  0EFF               	movlw	-1
  4318   000E9C  6E03               	movwf	(___xxtofl@val+2)^0,c
  4319   000E9E  6E04               	movwf	(___xxtofl@val+3)^0,c
  4320   000EA0  0E01               	movlw	1
  4321   000EA2  EC83  F015         	call	___xxtofl
  4322   000EA6  C001  F066         	movff	?___xxtofl,Colour_decider@RGB_col
  4323   000EAA  C002  F067         	movff	?___xxtofl+1,Colour_decider@RGB_col+1
  4324   000EAE  C003  F068         	movff	?___xxtofl+2,Colour_decider@RGB_col+2
  4325   000EB2  C004  F069         	movff	?___xxtofl+3,Colour_decider@RGB_col+3
  4326   000EB6  EE20 F002          	lfsr	2,2
  4327   000EBA  504B               	movf	Colour_decider@vals^0,w,c
  4328   000EBC  26D9               	addwf	fsr2l,f,c
  4329   000EBE  504C               	movf	(Colour_decider@vals+1)^0,w,c
  4330   000EC0  22DA               	addwfc	fsr2h,f,c
  4331   000EC2  CFDE F001          	movff	postinc2,___xxtofl@val
  4332   000EC6  CFDD F002          	movff	postdec2,___xxtofl@val+1
  4333   000ECA  0E00               	movlw	0
  4334   000ECC  BE02               	btfsc	(___xxtofl@val+1)^0,7,c
  4335   000ECE  0EFF               	movlw	-1
  4336   000ED0  6E03               	movwf	(___xxtofl@val+2)^0,c
  4337   000ED2  6E04               	movwf	(___xxtofl@val+3)^0,c
  4338   000ED4  0E01               	movlw	1
  4339   000ED6  EC83  F015         	call	___xxtofl
  4340   000EDA  C001  F06A         	movff	?___xxtofl,Colour_decider@RGB_col+4
  4341   000EDE  C002  F06B         	movff	?___xxtofl+1,Colour_decider@RGB_col+5
  4342   000EE2  C003  F06C         	movff	?___xxtofl+2,Colour_decider@RGB_col+6
  4343   000EE6  C004  F06D         	movff	?___xxtofl+3,Colour_decider@RGB_col+7
  4344   000EEA  EE20 F004          	lfsr	2,4
  4345   000EEE  504B               	movf	Colour_decider@vals^0,w,c
  4346   000EF0  26D9               	addwf	fsr2l,f,c
  4347   000EF2  504C               	movf	(Colour_decider@vals+1)^0,w,c
  4348   000EF4  22DA               	addwfc	fsr2h,f,c
  4349   000EF6  CFDE F001          	movff	postinc2,___xxtofl@val
  4350   000EFA  CFDD F002          	movff	postdec2,___xxtofl@val+1
  4351   000EFE  0E00               	movlw	0
  4352   000F00  BE02               	btfsc	(___xxtofl@val+1)^0,7,c
  4353   000F02  0EFF               	movlw	-1
  4354   000F04  6E03               	movwf	(___xxtofl@val+2)^0,c
  4355   000F06  6E04               	movwf	(___xxtofl@val+3)^0,c
  4356   000F08  0E01               	movlw	1
  4357   000F0A  EC83  F015         	call	___xxtofl
  4358   000F0E  C001  F06E         	movff	?___xxtofl,Colour_decider@RGB_col+8
  4359   000F12  C002  F06F         	movff	?___xxtofl+1,Colour_decider@RGB_col+9
  4360   000F16  C003  F070         	movff	?___xxtofl+2,Colour_decider@RGB_col+10
  4361   000F1A  C004  F071         	movff	?___xxtofl+3,Colour_decider@RGB_col+11
  4362   000F1E                     
  4363                           ;color.c: 130:     float Hue;;color.c: 133:     for (i=0; i<3 ;i++){
  4364   000F1E  0E00               	movlw	0
  4365   000F20  0100               	movlb	0	; () banked
  4366   000F22  6F7B               	movwf	(Colour_decider@i+1)& (0+255),b
  4367   000F24  0E00               	movlw	0
  4368   000F26  6F7A               	movwf	Colour_decider@i& (0+255),b
  4369   000F28                     l3201:
  4370                           
  4371                           ; BSR set to: 0
  4372                           ;color.c: 134:         if (RGB_col[i]>Cmax){
  4373   000F28  C072  F001         	movff	Colour_decider@Cmax,___flge@ff1
  4374   000F2C  C073  F002         	movff	Colour_decider@Cmax+1,___flge@ff1+1
  4375   000F30  C074  F003         	movff	Colour_decider@Cmax+2,___flge@ff1+2
  4376   000F34  C075  F004         	movff	Colour_decider@Cmax+3,___flge@ff1+3
  4377   000F38  0E66               	movlw	low Colour_decider@RGB_col
  4378   000F3A  6E4F               	movwf	??_Colour_decider^0,c
  4379   000F3C  0E00               	movlw	high Colour_decider@RGB_col
  4380   000F3E  6E50               	movwf	(??_Colour_decider+1)^0,c
  4381   000F40  90D8               	bcf	status,0,c
  4382   000F42  357A               	rlcf	Colour_decider@i& (0+255),w,b
  4383   000F44  6ED9               	movwf	fsr2l,c
  4384   000F46  357B               	rlcf	(Colour_decider@i+1)& (0+255),w,b
  4385   000F48  6EDA               	movwf	fsr2h,c
  4386   000F4A  90D8               	bcf	status,0,c
  4387   000F4C  36D9               	rlcf	fsr2l,f,c
  4388   000F4E  36DA               	rlcf	fsr2h,f,c
  4389   000F50  504F               	movf	??_Colour_decider^0,w,c
  4390   000F52  26D9               	addwf	fsr2l,f,c
  4391   000F54  5050               	movf	(??_Colour_decider+1)^0,w,c
  4392   000F56  22DA               	addwfc	fsr2h,f,c
  4393   000F58  CFDE F005          	movff	postinc2,___flge@ff2
  4394   000F5C  CFDE F006          	movff	postinc2,___flge@ff2+1
  4395   000F60  CFDE F007          	movff	postinc2,___flge@ff2+2
  4396   000F64  CFDE F008          	movff	postinc2,___flge@ff2+3
  4397   000F68  EC7A  F018         	call	___flge	;wreg free
  4398   000F6C  B0D8               	btfsc	status,0,c
  4399   000F6E  EFBB  F007         	goto	u3231
  4400   000F72  EFBD  F007         	goto	u3230
  4401   000F76                     u3231:
  4402   000F76  EFDA  F007         	goto	l3207
  4403   000F7A                     u3230:
  4404   000F7A                     
  4405                           ;color.c: 135:             Cmax=RGB_col[i];
  4406   000F7A  0E66               	movlw	low Colour_decider@RGB_col
  4407   000F7C  6E4F               	movwf	??_Colour_decider^0,c
  4408   000F7E  0E00               	movlw	high Colour_decider@RGB_col
  4409   000F80  6E50               	movwf	(??_Colour_decider+1)^0,c
  4410   000F82  90D8               	bcf	status,0,c
  4411   000F84  0100               	movlb	0	; () banked
  4412   000F86  357A               	rlcf	Colour_decider@i& (0+255),w,b
  4413   000F88  6ED9               	movwf	fsr2l,c
  4414   000F8A  357B               	rlcf	(Colour_decider@i+1)& (0+255),w,b
  4415   000F8C  6EDA               	movwf	fsr2h,c
  4416   000F8E  90D8               	bcf	status,0,c
  4417   000F90  36D9               	rlcf	fsr2l,f,c
  4418   000F92  36DA               	rlcf	fsr2h,f,c
  4419   000F94  504F               	movf	??_Colour_decider^0,w,c
  4420   000F96  26D9               	addwf	fsr2l,f,c
  4421   000F98  5050               	movf	(??_Colour_decider+1)^0,w,c
  4422   000F9A  22DA               	addwfc	fsr2h,f,c
  4423   000F9C  CFDE F072          	movff	postinc2,Colour_decider@Cmax
  4424   000FA0  CFDE F073          	movff	postinc2,Colour_decider@Cmax+1
  4425   000FA4  CFDE F074          	movff	postinc2,Colour_decider@Cmax+2
  4426   000FA8  CFDE F075          	movff	postinc2,Colour_decider@Cmax+3
  4427   000FAC                     
  4428                           ; BSR set to: 0
  4429                           ;color.c: 136:             Cmax_i=i;
  4430   000FAC  C07A  F064         	movff	Colour_decider@i,Colour_decider@Cmax_i
  4431   000FB0  C07B  F065         	movff	Colour_decider@i+1,Colour_decider@Cmax_i+1
  4432   000FB4                     l3207:
  4433                           
  4434                           ;color.c: 138:         if (RGB_col[i]<Cmin){Cmin=RGB_col[i];}
  4435   000FB4  0E66               	movlw	low Colour_decider@RGB_col
  4436   000FB6  6E4F               	movwf	??_Colour_decider^0,c
  4437   000FB8  0E00               	movlw	high Colour_decider@RGB_col
  4438   000FBA  6E50               	movwf	(??_Colour_decider+1)^0,c
  4439   000FBC  90D8               	bcf	status,0,c
  4440   000FBE  0100               	movlb	0	; () banked
  4441   000FC0  357A               	rlcf	Colour_decider@i& (0+255),w,b
  4442   000FC2  6ED9               	movwf	fsr2l,c
  4443   000FC4  357B               	rlcf	(Colour_decider@i+1)& (0+255),w,b
  4444   000FC6  6EDA               	movwf	fsr2h,c
  4445   000FC8  90D8               	bcf	status,0,c
  4446   000FCA  36D9               	rlcf	fsr2l,f,c
  4447   000FCC  36DA               	rlcf	fsr2h,f,c
  4448   000FCE  504F               	movf	??_Colour_decider^0,w,c
  4449   000FD0  26D9               	addwf	fsr2l,f,c
  4450   000FD2  5050               	movf	(??_Colour_decider+1)^0,w,c
  4451   000FD4  22DA               	addwfc	fsr2h,f,c
  4452   000FD6  CFDE F001          	movff	postinc2,___flge@ff1
  4453   000FDA  CFDE F002          	movff	postinc2,___flge@ff1+1
  4454   000FDE  CFDE F003          	movff	postinc2,___flge@ff1+2
  4455   000FE2  CFDE F004          	movff	postinc2,___flge@ff1+3
  4456   000FE6  C076  F005         	movff	Colour_decider@Cmin,___flge@ff2
  4457   000FEA  C077  F006         	movff	Colour_decider@Cmin+1,___flge@ff2+1
  4458   000FEE  C078  F007         	movff	Colour_decider@Cmin+2,___flge@ff2+2
  4459   000FF2  C079  F008         	movff	Colour_decider@Cmin+3,___flge@ff2+3
  4460   000FF6  EC7A  F018         	call	___flge	;wreg free
  4461   000FFA  B0D8               	btfsc	status,0,c
  4462   000FFC  EF02  F008         	goto	u3241
  4463   001000  EF04  F008         	goto	u3240
  4464   001004                     u3241:
  4465   001004  EF1D  F008         	goto	l3211
  4466   001008                     u3240:
  4467   001008  0E66               	movlw	low Colour_decider@RGB_col
  4468   00100A  6E4F               	movwf	??_Colour_decider^0,c
  4469   00100C  0E00               	movlw	high Colour_decider@RGB_col
  4470   00100E  6E50               	movwf	(??_Colour_decider+1)^0,c
  4471   001010  90D8               	bcf	status,0,c
  4472   001012  0100               	movlb	0	; () banked
  4473   001014  357A               	rlcf	Colour_decider@i& (0+255),w,b
  4474   001016  6ED9               	movwf	fsr2l,c
  4475   001018  357B               	rlcf	(Colour_decider@i+1)& (0+255),w,b
  4476   00101A  6EDA               	movwf	fsr2h,c
  4477   00101C  90D8               	bcf	status,0,c
  4478   00101E  36D9               	rlcf	fsr2l,f,c
  4479   001020  36DA               	rlcf	fsr2h,f,c
  4480   001022  504F               	movf	??_Colour_decider^0,w,c
  4481   001024  26D9               	addwf	fsr2l,f,c
  4482   001026  5050               	movf	(??_Colour_decider+1)^0,w,c
  4483   001028  22DA               	addwfc	fsr2h,f,c
  4484   00102A  CFDE F076          	movff	postinc2,Colour_decider@Cmin
  4485   00102E  CFDE F077          	movff	postinc2,Colour_decider@Cmin+1
  4486   001032  CFDE F078          	movff	postinc2,Colour_decider@Cmin+2
  4487   001036  CFDE F079          	movff	postinc2,Colour_decider@Cmin+3
  4488   00103A                     l3211:
  4489                           
  4490                           ;color.c: 139:     }
  4491   00103A  0100               	movlb	0	; () banked
  4492   00103C  4B7A               	infsnz	Colour_decider@i& (0+255),f,b
  4493   00103E  2B7B               	incf	(Colour_decider@i+1)& (0+255),f,b
  4494   001040                     
  4495                           ; BSR set to: 0
  4496   001040  BF7B               	btfsc	(Colour_decider@i+1)& (0+255),7,b
  4497   001042  EF2C  F008         	goto	u3251
  4498   001046  517B               	movf	(Colour_decider@i+1)& (0+255),w,b
  4499   001048  E109               	bnz	u3250
  4500   00104A  0E03               	movlw	3
  4501   00104C  5D7A               	subwf	Colour_decider@i& (0+255),w,b
  4502   00104E  A0D8               	btfss	status,0,c
  4503   001050  EF2C  F008         	goto	u3251
  4504   001054  EF2E  F008         	goto	u3250
  4505   001058                     u3251:
  4506   001058  EF94  F007         	goto	l3201
  4507   00105C                     u3250:
  4508   00105C                     
  4509                           ; BSR set to: 0
  4510                           ;color.c: 141:     if (Cmax-Cmin==0){return 0;}
  4511   00105C  C076  F015         	movff	Colour_decider@Cmin,___flsub@a
  4512   001060  C077  F016         	movff	Colour_decider@Cmin+1,___flsub@a+1
  4513   001064  C078  F017         	movff	Colour_decider@Cmin+2,___flsub@a+2
  4514   001068  C079  F018         	movff	Colour_decider@Cmin+3,___flsub@a+3
  4515   00106C  C072  F011         	movff	Colour_decider@Cmax,___flsub@b
  4516   001070  C073  F012         	movff	Colour_decider@Cmax+1,___flsub@b+1
  4517   001074  C074  F013         	movff	Colour_decider@Cmax+2,___flsub@b+2
  4518   001078  C075  F014         	movff	Colour_decider@Cmax+3,___flsub@b+3
  4519   00107C  ECE7  F01B         	call	___flsub	;wreg free
  4520   001080  C011  F019         	movff	?___flsub,___fleq@ff1
  4521   001084  C012  F01A         	movff	?___flsub+1,___fleq@ff1+1
  4522   001088  C013  F01B         	movff	?___flsub+2,___fleq@ff1+2
  4523   00108C  C014  F01C         	movff	?___flsub+3,___fleq@ff1+3
  4524   001090  0E00               	movlw	0
  4525   001092  6E1D               	movwf	___fleq@ff2^0,c
  4526   001094  0E00               	movlw	0
  4527   001096  6E1E               	movwf	(___fleq@ff2+1)^0,c
  4528   001098  0E00               	movlw	0
  4529   00109A  6E1F               	movwf	(___fleq@ff2+2)^0,c
  4530   00109C  0E00               	movlw	0
  4531   00109E  6E20               	movwf	(___fleq@ff2+3)^0,c
  4532   0010A0  ECDE  F019         	call	___fleq	;wreg free
  4533   0010A4  A0D8               	btfss	status,0,c
  4534   0010A6  EF57  F008         	goto	u3261
  4535   0010AA  EF59  F008         	goto	u3260
  4536   0010AE                     u3261:
  4537   0010AE  EF5F  F008         	goto	l3221
  4538   0010B2                     u3260:
  4539   0010B2                     l3217:
  4540   0010B2  0E00               	movlw	0
  4541   0010B4  6E4C               	movwf	(?_Colour_decider+1)^0,c
  4542   0010B6  0E00               	movlw	0
  4543   0010B8  6E4B               	movwf	?_Colour_decider^0,c
  4544   0010BA  EF6A  F00C         	goto	l68
  4545   0010BE                     l3221:
  4546                           
  4547                           ;color.c: 144:     if (Cmax_i==0){
  4548   0010BE  0100               	movlb	0	; () banked
  4549   0010C0  5164               	movf	Colour_decider@Cmax_i& (0+255),w,b
  4550   0010C2  1165               	iorwf	(Colour_decider@Cmax_i+1)& (0+255),w,b
  4551   0010C4  A4D8               	btfss	status,2,c
  4552   0010C6  EF67  F008         	goto	u3271
  4553   0010CA  EF69  F008         	goto	u3270
  4554   0010CE                     u3271:
  4555   0010CE  EFDD  F008         	goto	l3229
  4556   0010D2                     u3270:
  4557   0010D2                     
  4558                           ; BSR set to: 0
  4559                           ;color.c: 145:         Hue = 60 * ((RGB_col[1]-RGB_col[2])/(Cmax-Cmin));
  4560   0010D2  C076  F015         	movff	Colour_decider@Cmin,___flsub@a
  4561   0010D6  C077  F016         	movff	Colour_decider@Cmin+1,___flsub@a+1
  4562   0010DA  C078  F017         	movff	Colour_decider@Cmin+2,___flsub@a+2
  4563   0010DE  C079  F018         	movff	Colour_decider@Cmin+3,___flsub@a+3
  4564   0010E2  C072  F011         	movff	Colour_decider@Cmax,___flsub@b
  4565   0010E6  C073  F012         	movff	Colour_decider@Cmax+1,___flsub@b+1
  4566   0010EA  C074  F013         	movff	Colour_decider@Cmax+2,___flsub@b+2
  4567   0010EE  C075  F014         	movff	Colour_decider@Cmax+3,___flsub@b+3
  4568   0010F2  ECE7  F01B         	call	___flsub	;wreg free
  4569   0010F6  C011  F01D         	movff	?___flsub,___fldiv@a
  4570   0010FA  C012  F01E         	movff	?___flsub+1,___fldiv@a+1
  4571   0010FE  C013  F01F         	movff	?___flsub+2,___fldiv@a+2
  4572   001102  C014  F020         	movff	?___flsub+3,___fldiv@a+3
  4573   001106  C06E  F015         	movff	Colour_decider@RGB_col+8,___flsub@a
  4574   00110A  C06F  F016         	movff	Colour_decider@RGB_col+9,___flsub@a+1
  4575   00110E  C070  F017         	movff	Colour_decider@RGB_col+10,___flsub@a+2
  4576   001112  C071  F018         	movff	Colour_decider@RGB_col+11,___flsub@a+3
  4577   001116  C06A  F011         	movff	Colour_decider@RGB_col+4,___flsub@b
  4578   00111A  C06B  F012         	movff	Colour_decider@RGB_col+5,___flsub@b+1
  4579   00111E  C06C  F013         	movff	Colour_decider@RGB_col+6,___flsub@b+2
  4580   001122  C06D  F014         	movff	Colour_decider@RGB_col+7,___flsub@b+3
  4581   001126  ECE7  F01B         	call	___flsub	;wreg free
  4582   00112A  C011  F019         	movff	?___flsub,___fldiv@b
  4583   00112E  C012  F01A         	movff	?___flsub+1,___fldiv@b+1
  4584   001132  C013  F01B         	movff	?___flsub+2,___fldiv@b+2
  4585   001136  C014  F01C         	movff	?___flsub+3,___fldiv@b+3
  4586   00113A  ECE0  F010         	call	___fldiv	;wreg free
  4587   00113E  C019  F032         	movff	?___fldiv,___flmul@b
  4588   001142  C01A  F033         	movff	?___fldiv+1,___flmul@b+1
  4589   001146  C01B  F034         	movff	?___fldiv+2,___flmul@b+2
  4590   00114A  C01C  F035         	movff	?___fldiv+3,___flmul@b+3
  4591   00114E  0E00               	movlw	0
  4592   001150  6E36               	movwf	___flmul@a^0,c
  4593   001152  0E00               	movlw	0
  4594   001154  6E37               	movwf	(___flmul@a+1)^0,c
  4595   001156  0E70               	movlw	112
  4596   001158  6E38               	movwf	(___flmul@a+2)^0,c
  4597   00115A  0E42               	movlw	66
  4598   00115C  6E39               	movwf	(___flmul@a+3)^0,c
  4599   00115E  ECCB  F00E         	call	___flmul	;wreg free
  4600   001162  C032  F07C         	movff	?___flmul,Colour_decider@Hue
  4601   001166  C033  F07D         	movff	?___flmul+1,Colour_decider@Hue+1
  4602   00116A  C034  F07E         	movff	?___flmul+2,Colour_decider@Hue+2
  4603   00116E  C035  F07F         	movff	?___flmul+3,Colour_decider@Hue+3
  4604   001172                     
  4605                           ;color.c: 147:         if (Hue < 0) {Hue += 360;}
  4606   001172  0100               	movlb	0	; () banked
  4607   001174  BF7F               	btfsc	(Colour_decider@Hue+3)& (0+255),7,b
  4608   001176  EFC1  F008         	goto	u3280
  4609   00117A  EFBF  F008         	goto	u3281
  4610   00117E                     u3281:
  4611   00117E  EFBC  F009         	goto	l3239
  4612   001182                     u3280:
  4613   001182                     
  4614                           ; BSR set to: 0
  4615   001182  C07C  F001         	movff	Colour_decider@Hue,___fladd@b
  4616   001186  C07D  F002         	movff	Colour_decider@Hue+1,___fladd@b+1
  4617   00118A  C07E  F003         	movff	Colour_decider@Hue+2,___fladd@b+2
  4618   00118E  C07F  F004         	movff	Colour_decider@Hue+3,___fladd@b+3
  4619   001192  0E00               	movlw	0
  4620   001194  6E05               	movwf	___fladd@a^0,c
  4621   001196  0E00               	movlw	0
  4622   001198  6E06               	movwf	(___fladd@a+1)^0,c
  4623   00119A  0EB4               	movlw	180
  4624   00119C  6E07               	movwf	(___fladd@a+2)^0,c
  4625   00119E  0E43               	movlw	67
  4626   0011A0  6E08               	movwf	(___fladd@a+3)^0,c
  4627   0011A2  EC6B  F00C         	call	___fladd	;wreg free
  4628   0011A6  C001  F07C         	movff	?___fladd,Colour_decider@Hue
  4629   0011AA  C002  F07D         	movff	?___fladd+1,Colour_decider@Hue+1
  4630   0011AE  C003  F07E         	movff	?___fladd+2,Colour_decider@Hue+2
  4631   0011B2  C004  F07F         	movff	?___fladd+3,Colour_decider@Hue+3
  4632   0011B6  EFBC  F009         	goto	l3239
  4633   0011BA                     l3229:
  4634                           
  4635                           ; BSR set to: 0
  4636   0011BA  0564               	decf	Colour_decider@Cmax_i& (0+255),w,b
  4637   0011BC  1165               	iorwf	(Colour_decider@Cmax_i+1)& (0+255),w,b
  4638   0011BE  A4D8               	btfss	status,2,c
  4639   0011C0  EFE4  F008         	goto	u3291
  4640   0011C4  EFE6  F008         	goto	u3290
  4641   0011C8                     u3291:
  4642   0011C8  EF52  F009         	goto	l3235
  4643   0011CC                     u3290:
  4644   0011CC                     
  4645                           ; BSR set to: 0
  4646                           ;color.c: 151:         Hue=60*(2+(RGB_col[2]-RGB_col[0])/(Cmax-Cmin));
  4647   0011CC  C076  F015         	movff	Colour_decider@Cmin,___flsub@a
  4648   0011D0  C077  F016         	movff	Colour_decider@Cmin+1,___flsub@a+1
  4649   0011D4  C078  F017         	movff	Colour_decider@Cmin+2,___flsub@a+2
  4650   0011D8  C079  F018         	movff	Colour_decider@Cmin+3,___flsub@a+3
  4651   0011DC  C072  F011         	movff	Colour_decider@Cmax,___flsub@b
  4652   0011E0  C073  F012         	movff	Colour_decider@Cmax+1,___flsub@b+1
  4653   0011E4  C074  F013         	movff	Colour_decider@Cmax+2,___flsub@b+2
  4654   0011E8  C075  F014         	movff	Colour_decider@Cmax+3,___flsub@b+3
  4655   0011EC  ECE7  F01B         	call	___flsub	;wreg free
  4656   0011F0  C011  F01D         	movff	?___flsub,___fldiv@a
  4657   0011F4  C012  F01E         	movff	?___flsub+1,___fldiv@a+1
  4658   0011F8  C013  F01F         	movff	?___flsub+2,___fldiv@a+2
  4659   0011FC  C014  F020         	movff	?___flsub+3,___fldiv@a+3
  4660   001200  C066  F015         	movff	Colour_decider@RGB_col,___flsub@a
  4661   001204  C067  F016         	movff	Colour_decider@RGB_col+1,___flsub@a+1
  4662   001208  C068  F017         	movff	Colour_decider@RGB_col+2,___flsub@a+2
  4663   00120C  C069  F018         	movff	Colour_decider@RGB_col+3,___flsub@a+3
  4664   001210  C06E  F011         	movff	Colour_decider@RGB_col+8,___flsub@b
  4665   001214  C06F  F012         	movff	Colour_decider@RGB_col+9,___flsub@b+1
  4666   001218  C070  F013         	movff	Colour_decider@RGB_col+10,___flsub@b+2
  4667   00121C  C071  F014         	movff	Colour_decider@RGB_col+11,___flsub@b+3
  4668   001220  ECE7  F01B         	call	___flsub	;wreg free
  4669   001224  C011  F019         	movff	?___flsub,___fldiv@b
  4670   001228  C012  F01A         	movff	?___flsub+1,___fldiv@b+1
  4671   00122C  C013  F01B         	movff	?___flsub+2,___fldiv@b+2
  4672   001230  C014  F01C         	movff	?___flsub+3,___fldiv@b+3
  4673   001234  ECE0  F010         	call	___fldiv	;wreg free
  4674   001238  C019  F060         	movff	?___fldiv,_Colour_decider$1740
  4675   00123C  C01A  F061         	movff	?___fldiv+1,_Colour_decider$1740+1
  4676   001240  C01B  F062         	movff	?___fldiv+2,_Colour_decider$1740+2
  4677   001244  C01C  F063         	movff	?___fldiv+3,_Colour_decider$1740+3
  4678   001248                     
  4679                           ;color.c: 151:         Hue=60*(2+(RGB_col[2]-RGB_col[0])/(Cmax-Cmin));
  4680   001248  0E00               	movlw	0
  4681   00124A  6E05               	movwf	___fladd@a^0,c
  4682   00124C  0E00               	movlw	0
  4683   00124E  6E06               	movwf	(___fladd@a+1)^0,c
  4684   001250  0E00               	movlw	0
  4685   001252  6E07               	movwf	(___fladd@a+2)^0,c
  4686   001254  0E40               	movlw	64
  4687   001256  6E08               	movwf	(___fladd@a+3)^0,c
  4688   001258  C060  F001         	movff	_Colour_decider$1740,___fladd@b
  4689   00125C  C061  F002         	movff	_Colour_decider$1740+1,___fladd@b+1
  4690   001260  C062  F003         	movff	_Colour_decider$1740+2,___fladd@b+2
  4691   001264  C063  F004         	movff	_Colour_decider$1740+3,___fladd@b+3
  4692   001268  EC6B  F00C         	call	___fladd	;wreg free
  4693   00126C  C001  F032         	movff	?___fladd,___flmul@b
  4694   001270  C002  F033         	movff	?___fladd+1,___flmul@b+1
  4695   001274  C003  F034         	movff	?___fladd+2,___flmul@b+2
  4696   001278  C004  F035         	movff	?___fladd+3,___flmul@b+3
  4697   00127C  0E00               	movlw	0
  4698   00127E  6E36               	movwf	___flmul@a^0,c
  4699   001280  0E00               	movlw	0
  4700   001282  6E37               	movwf	(___flmul@a+1)^0,c
  4701   001284  0E70               	movlw	112
  4702   001286  6E38               	movwf	(___flmul@a+2)^0,c
  4703   001288  0E42               	movlw	66
  4704   00128A  6E39               	movwf	(___flmul@a+3)^0,c
  4705   00128C  ECCB  F00E         	call	___flmul	;wreg free
  4706   001290  C032  F07C         	movff	?___flmul,Colour_decider@Hue
  4707   001294  C033  F07D         	movff	?___flmul+1,Colour_decider@Hue+1
  4708   001298  C034  F07E         	movff	?___flmul+2,Colour_decider@Hue+2
  4709   00129C  C035  F07F         	movff	?___flmul+3,Colour_decider@Hue+3
  4710                           
  4711                           ;color.c: 153:     }
  4712   0012A0  EFBC  F009         	goto	l3239
  4713   0012A4                     l3235:
  4714                           
  4715                           ; BSR set to: 0
  4716                           ;color.c: 156:         Hue=(4+(RGB_col[0]-RGB_col[1])/(Cmax-Cmin))*60;
  4717   0012A4  C076  F015         	movff	Colour_decider@Cmin,___flsub@a
  4718   0012A8  C077  F016         	movff	Colour_decider@Cmin+1,___flsub@a+1
  4719   0012AC  C078  F017         	movff	Colour_decider@Cmin+2,___flsub@a+2
  4720   0012B0  C079  F018         	movff	Colour_decider@Cmin+3,___flsub@a+3
  4721   0012B4  C072  F011         	movff	Colour_decider@Cmax,___flsub@b
  4722   0012B8  C073  F012         	movff	Colour_decider@Cmax+1,___flsub@b+1
  4723   0012BC  C074  F013         	movff	Colour_decider@Cmax+2,___flsub@b+2
  4724   0012C0  C075  F014         	movff	Colour_decider@Cmax+3,___flsub@b+3
  4725   0012C4  ECE7  F01B         	call	___flsub	;wreg free
  4726   0012C8  C011  F01D         	movff	?___flsub,___fldiv@a
  4727   0012CC  C012  F01E         	movff	?___flsub+1,___fldiv@a+1
  4728   0012D0  C013  F01F         	movff	?___flsub+2,___fldiv@a+2
  4729   0012D4  C014  F020         	movff	?___flsub+3,___fldiv@a+3
  4730   0012D8  C06A  F015         	movff	Colour_decider@RGB_col+4,___flsub@a
  4731   0012DC  C06B  F016         	movff	Colour_decider@RGB_col+5,___flsub@a+1
  4732   0012E0  C06C  F017         	movff	Colour_decider@RGB_col+6,___flsub@a+2
  4733   0012E4  C06D  F018         	movff	Colour_decider@RGB_col+7,___flsub@a+3
  4734   0012E8  C066  F011         	movff	Colour_decider@RGB_col,___flsub@b
  4735   0012EC  C067  F012         	movff	Colour_decider@RGB_col+1,___flsub@b+1
  4736   0012F0  C068  F013         	movff	Colour_decider@RGB_col+2,___flsub@b+2
  4737   0012F4  C069  F014         	movff	Colour_decider@RGB_col+3,___flsub@b+3
  4738   0012F8  ECE7  F01B         	call	___flsub	;wreg free
  4739   0012FC  C011  F019         	movff	?___flsub,___fldiv@b
  4740   001300  C012  F01A         	movff	?___flsub+1,___fldiv@b+1
  4741   001304  C013  F01B         	movff	?___flsub+2,___fldiv@b+2
  4742   001308  C014  F01C         	movff	?___flsub+3,___fldiv@b+3
  4743   00130C  ECE0  F010         	call	___fldiv	;wreg free
  4744   001310  C019  F060         	movff	?___fldiv,_Colour_decider$1740
  4745   001314  C01A  F061         	movff	?___fldiv+1,_Colour_decider$1740+1
  4746   001318  C01B  F062         	movff	?___fldiv+2,_Colour_decider$1740+2
  4747   00131C  C01C  F063         	movff	?___fldiv+3,_Colour_decider$1740+3
  4748   001320                     
  4749                           ;color.c: 156:         Hue=(4+(RGB_col[0]-RGB_col[1])/(Cmax-Cmin))*60;
  4750   001320  0E00               	movlw	0
  4751   001322  6E05               	movwf	___fladd@a^0,c
  4752   001324  0E00               	movlw	0
  4753   001326  6E06               	movwf	(___fladd@a+1)^0,c
  4754   001328  0E80               	movlw	128
  4755   00132A  6E07               	movwf	(___fladd@a+2)^0,c
  4756   00132C  0E40               	movlw	64
  4757   00132E  6E08               	movwf	(___fladd@a+3)^0,c
  4758   001330  C060  F001         	movff	_Colour_decider$1740,___fladd@b
  4759   001334  C061  F002         	movff	_Colour_decider$1740+1,___fladd@b+1
  4760   001338  C062  F003         	movff	_Colour_decider$1740+2,___fladd@b+2
  4761   00133C  C063  F004         	movff	_Colour_decider$1740+3,___fladd@b+3
  4762   001340  EC6B  F00C         	call	___fladd	;wreg free
  4763   001344  C001  F032         	movff	?___fladd,___flmul@b
  4764   001348  C002  F033         	movff	?___fladd+1,___flmul@b+1
  4765   00134C  C003  F034         	movff	?___fladd+2,___flmul@b+2
  4766   001350  C004  F035         	movff	?___fladd+3,___flmul@b+3
  4767   001354  0E00               	movlw	0
  4768   001356  6E36               	movwf	___flmul@a^0,c
  4769   001358  0E00               	movlw	0
  4770   00135A  6E37               	movwf	(___flmul@a+1)^0,c
  4771   00135C  0E70               	movlw	112
  4772   00135E  6E38               	movwf	(___flmul@a+2)^0,c
  4773   001360  0E42               	movlw	66
  4774   001362  6E39               	movwf	(___flmul@a+3)^0,c
  4775   001364  ECCB  F00E         	call	___flmul	;wreg free
  4776   001368  C032  F07C         	movff	?___flmul,Colour_decider@Hue
  4777   00136C  C033  F07D         	movff	?___flmul+1,Colour_decider@Hue+1
  4778   001370  C034  F07E         	movff	?___flmul+2,Colour_decider@Hue+2
  4779   001374  C035  F07F         	movff	?___flmul+3,Colour_decider@Hue+3
  4780   001378                     l3239:
  4781                           
  4782                           ;color.c: 161:     if ((330<=Hue)&(Hue<=360)){
  4783   001378  C07C  F001         	movff	Colour_decider@Hue,___flge@ff1
  4784   00137C  C07D  F002         	movff	Colour_decider@Hue+1,___flge@ff1+1
  4785   001380  C07E  F003         	movff	Colour_decider@Hue+2,___flge@ff1+2
  4786   001384  C07F  F004         	movff	Colour_decider@Hue+3,___flge@ff1+3
  4787   001388  0E00               	movlw	0
  4788   00138A  6E05               	movwf	___flge@ff2^0,c
  4789   00138C  0E00               	movlw	0
  4790   00138E  6E06               	movwf	(___flge@ff2+1)^0,c
  4791   001390  0EA5               	movlw	165
  4792   001392  6E07               	movwf	(___flge@ff2+2)^0,c
  4793   001394  0E43               	movlw	67
  4794   001396  6E08               	movwf	(___flge@ff2+3)^0,c
  4795   001398  EC7A  F018         	call	___flge	;wreg free
  4796   00139C  A0D8               	btfss	status,0,c
  4797   00139E  EFD3  F009         	goto	u3301
  4798   0013A2  EFD5  F009         	goto	u3300
  4799   0013A6                     u3301:
  4800   0013A6  EFF4  F009         	goto	l3249
  4801   0013AA                     u3300:
  4802   0013AA  0E00               	movlw	0
  4803   0013AC  6E01               	movwf	___flge@ff1^0,c
  4804   0013AE  0E00               	movlw	0
  4805   0013B0  6E02               	movwf	(___flge@ff1+1)^0,c
  4806   0013B2  0EB4               	movlw	180
  4807   0013B4  6E03               	movwf	(___flge@ff1+2)^0,c
  4808   0013B6  0E43               	movlw	67
  4809   0013B8  6E04               	movwf	(___flge@ff1+3)^0,c
  4810   0013BA  C07C  F005         	movff	Colour_decider@Hue,___flge@ff2
  4811   0013BE  C07D  F006         	movff	Colour_decider@Hue+1,___flge@ff2+1
  4812   0013C2  C07E  F007         	movff	Colour_decider@Hue+2,___flge@ff2+2
  4813   0013C6  C07F  F008         	movff	Colour_decider@Hue+3,___flge@ff2+3
  4814   0013CA  EC7A  F018         	call	___flge	;wreg free
  4815   0013CE  A0D8               	btfss	status,0,c
  4816   0013D0  EFEC  F009         	goto	u3311
  4817   0013D4  EFEE  F009         	goto	u3310
  4818   0013D8                     u3311:
  4819   0013D8  EFF4  F009         	goto	l3249
  4820   0013DC                     u3310:
  4821   0013DC                     
  4822                           ;color.c: 162:         return 1;
  4823   0013DC  0E00               	movlw	0
  4824   0013DE  6E4C               	movwf	(?_Colour_decider+1)^0,c
  4825   0013E0  0E01               	movlw	1
  4826   0013E2  6E4B               	movwf	?_Colour_decider^0,c
  4827   0013E4  EF6A  F00C         	goto	l68
  4828   0013E8                     l3249:
  4829   0013E8  C07C  F001         	movff	Colour_decider@Hue,___flge@ff1
  4830   0013EC  C07D  F002         	movff	Colour_decider@Hue+1,___flge@ff1+1
  4831   0013F0  C07E  F003         	movff	Colour_decider@Hue+2,___flge@ff1+2
  4832   0013F4  C07F  F004         	movff	Colour_decider@Hue+3,___flge@ff1+3
  4833   0013F8  0E00               	movlw	0
  4834   0013FA  6E05               	movwf	___flge@ff2^0,c
  4835   0013FC  0E00               	movlw	0
  4836   0013FE  6E06               	movwf	(___flge@ff2+1)^0,c
  4837   001400  0EA0               	movlw	160
  4838   001402  6E07               	movwf	(___flge@ff2+2)^0,c
  4839   001404  0E40               	movlw	64
  4840   001406  6E08               	movwf	(___flge@ff2+3)^0,c
  4841   001408  EC7A  F018         	call	___flge	;wreg free
  4842   00140C  A0D8               	btfss	status,0,c
  4843   00140E  EF0B  F00A         	goto	u3321
  4844   001412  EF0D  F00A         	goto	u3320
  4845   001416                     u3321:
  4846   001416  EF2C  F00A         	goto	l3259
  4847   00141A                     u3320:
  4848   00141A  0E00               	movlw	0
  4849   00141C  6E01               	movwf	___flge@ff1^0,c
  4850   00141E  0E00               	movlw	0
  4851   001420  6E02               	movwf	(___flge@ff1+1)^0,c
  4852   001422  0E40               	movlw	64
  4853   001424  6E03               	movwf	(___flge@ff1+2)^0,c
  4854   001426  0E41               	movlw	65
  4855   001428  6E04               	movwf	(___flge@ff1+3)^0,c
  4856   00142A  C07C  F005         	movff	Colour_decider@Hue,___flge@ff2
  4857   00142E  C07D  F006         	movff	Colour_decider@Hue+1,___flge@ff2+1
  4858   001432  C07E  F007         	movff	Colour_decider@Hue+2,___flge@ff2+2
  4859   001436  C07F  F008         	movff	Colour_decider@Hue+3,___flge@ff2+3
  4860   00143A  EC7A  F018         	call	___flge	;wreg free
  4861   00143E  A0D8               	btfss	status,0,c
  4862   001440  EF24  F00A         	goto	u3331
  4863   001444  EF26  F00A         	goto	u3330
  4864   001448                     u3331:
  4865   001448  EF2C  F00A         	goto	l3259
  4866   00144C                     u3330:
  4867   00144C                     
  4868                           ;color.c: 166:         return 2;
  4869   00144C  0E00               	movlw	0
  4870   00144E  6E4C               	movwf	(?_Colour_decider+1)^0,c
  4871   001450  0E02               	movlw	2
  4872   001452  6E4B               	movwf	?_Colour_decider^0,c
  4873   001454  EF6A  F00C         	goto	l68
  4874   001458                     l3259:
  4875   001458  C07C  F001         	movff	Colour_decider@Hue,___flge@ff1
  4876   00145C  C07D  F002         	movff	Colour_decider@Hue+1,___flge@ff1+1
  4877   001460  C07E  F003         	movff	Colour_decider@Hue+2,___flge@ff1+2
  4878   001464  C07F  F004         	movff	Colour_decider@Hue+3,___flge@ff1+3
  4879   001468  0E00               	movlw	0
  4880   00146A  6E05               	movwf	___flge@ff2^0,c
  4881   00146C  0E00               	movlw	0
  4882   00146E  6E06               	movwf	(___flge@ff2+1)^0,c
  4883   001470  0EA0               	movlw	160
  4884   001472  6E07               	movwf	(___flge@ff2+2)^0,c
  4885   001474  0E41               	movlw	65
  4886   001476  6E08               	movwf	(___flge@ff2+3)^0,c
  4887   001478  EC7A  F018         	call	___flge	;wreg free
  4888   00147C  A0D8               	btfss	status,0,c
  4889   00147E  EF43  F00A         	goto	u3341
  4890   001482  EF45  F00A         	goto	u3340
  4891   001486                     u3341:
  4892   001486  EFB9  F00A         	goto	l3283
  4893   00148A                     u3340:
  4894   00148A  0E00               	movlw	0
  4895   00148C  6E01               	movwf	___flge@ff1^0,c
  4896   00148E  0E00               	movlw	0
  4897   001490  6E02               	movwf	(___flge@ff1+1)^0,c
  4898   001492  0EE8               	movlw	232
  4899   001494  6E03               	movwf	(___flge@ff1+2)^0,c
  4900   001496  0E41               	movlw	65
  4901   001498  6E04               	movwf	(___flge@ff1+3)^0,c
  4902   00149A  C07C  F005         	movff	Colour_decider@Hue,___flge@ff2
  4903   00149E  C07D  F006         	movff	Colour_decider@Hue+1,___flge@ff2+1
  4904   0014A2  C07E  F007         	movff	Colour_decider@Hue+2,___flge@ff2+2
  4905   0014A6  C07F  F008         	movff	Colour_decider@Hue+3,___flge@ff2+3
  4906   0014AA  EC7A  F018         	call	___flge	;wreg free
  4907   0014AE  A0D8               	btfss	status,0,c
  4908   0014B0  EF5C  F00A         	goto	u3351
  4909   0014B4  EF5E  F00A         	goto	u3350
  4910   0014B8                     u3351:
  4911   0014B8  EFB9  F00A         	goto	l3283
  4912   0014BC                     u3350:
  4913   0014BC                     
  4914                           ;color.c: 171:         if ((0.20<=rel->R)&(rel->R<=0.23)){
  4915   0014BC  C04D  FFD9         	movff	Colour_decider@rel,fsr2l
  4916   0014C0  C04E  FFDA         	movff	Colour_decider@rel+1,fsr2h
  4917   0014C4  CFDE F001          	movff	postinc2,___flge@ff1
  4918   0014C8  CFDE F002          	movff	postinc2,___flge@ff1+1
  4919   0014CC  CFDE F003          	movff	postinc2,___flge@ff1+2
  4920   0014D0  CFDE F004          	movff	postinc2,___flge@ff1+3
  4921   0014D4  0ECD               	movlw	205
  4922   0014D6  6E05               	movwf	___flge@ff2^0,c
  4923   0014D8  0ECC               	movlw	204
  4924   0014DA  6E06               	movwf	(___flge@ff2+1)^0,c
  4925   0014DC  0E4C               	movlw	76
  4926   0014DE  6E07               	movwf	(___flge@ff2+2)^0,c
  4927   0014E0  0E3E               	movlw	62
  4928   0014E2  6E08               	movwf	(___flge@ff2+3)^0,c
  4929   0014E4  EC7A  F018         	call	___flge	;wreg free
  4930   0014E8  A0D8               	btfss	status,0,c
  4931   0014EA  EF79  F00A         	goto	u3361
  4932   0014EE  EF7B  F00A         	goto	u3360
  4933   0014F2                     u3361:
  4934   0014F2  EF9A  F00A         	goto	l3271
  4935   0014F6                     u3360:
  4936   0014F6  0E1F               	movlw	31
  4937   0014F8  6E01               	movwf	___flge@ff1^0,c
  4938   0014FA  0E85               	movlw	133
  4939   0014FC  6E02               	movwf	(___flge@ff1+1)^0,c
  4940   0014FE  0E6B               	movlw	107
  4941   001500  6E03               	movwf	(___flge@ff1+2)^0,c
  4942   001502  0E3E               	movlw	62
  4943   001504  6E04               	movwf	(___flge@ff1+3)^0,c
  4944   001506  C04D  FFD9         	movff	Colour_decider@rel,fsr2l
  4945   00150A  C04E  FFDA         	movff	Colour_decider@rel+1,fsr2h
  4946   00150E  CFDE F005          	movff	postinc2,___flge@ff2
  4947   001512  CFDE F006          	movff	postinc2,___flge@ff2+1
  4948   001516  CFDE F007          	movff	postinc2,___flge@ff2+2
  4949   00151A  CFDE F008          	movff	postinc2,___flge@ff2+3
  4950   00151E  EC7A  F018         	call	___flge	;wreg free
  4951   001522  A0D8               	btfss	status,0,c
  4952   001524  EF96  F00A         	goto	u3371
  4953   001528  EF98  F00A         	goto	u3370
  4954   00152C                     u3371:
  4955   00152C  EF9A  F00A         	goto	l3271
  4956   001530                     u3370:
  4957   001530  EF59  F008         	goto	l3217
  4958   001534                     l3271:
  4959                           
  4960                           ;color.c: 176:         if (vals->R>=2000){
  4961   001534  C04B  FFD9         	movff	Colour_decider@vals,fsr2l
  4962   001538  C04C  FFDA         	movff	Colour_decider@vals+1,fsr2h
  4963   00153C  0E01               	movlw	1
  4964   00153E  BEDB               	btfsc	plusw2,7,c
  4965   001540  EFAB  F00A         	goto	u3381
  4966   001544  0ED0               	movlw	208
  4967   001546  5CDE               	subwf	postinc2,w,c
  4968   001548  0E07               	movlw	7
  4969   00154A  58DE               	subwfb	postinc2,w,c
  4970   00154C  A0D8               	btfss	status,0,c
  4971   00154E  EFAB  F00A         	goto	u3381
  4972   001552  EFAD  F00A         	goto	u3380
  4973   001556                     u3381:
  4974   001556  EFB3  F00A         	goto	l3279
  4975   00155A                     u3380:
  4976   00155A                     
  4977                           ;color.c: 177:             return 3;
  4978   00155A  0E00               	movlw	0
  4979   00155C  6E4C               	movwf	(?_Colour_decider+1)^0,c
  4980   00155E  0E03               	movlw	3
  4981   001560  6E4B               	movwf	?_Colour_decider^0,c
  4982   001562  EF6A  F00C         	goto	l68
  4983   001566                     l3279:
  4984                           
  4985                           ;color.c: 180:             return 4;
  4986   001566  0E00               	movlw	0
  4987   001568  6E4C               	movwf	(?_Colour_decider+1)^0,c
  4988   00156A  0E04               	movlw	4
  4989   00156C  6E4B               	movwf	?_Colour_decider^0,c
  4990   00156E  EF6A  F00C         	goto	l68
  4991   001572                     l3283:
  4992   001572  C07C  F001         	movff	Colour_decider@Hue,___flge@ff1
  4993   001576  C07D  F002         	movff	Colour_decider@Hue+1,___flge@ff1+1
  4994   00157A  C07E  F003         	movff	Colour_decider@Hue+2,___flge@ff1+2
  4995   00157E  C07F  F004         	movff	Colour_decider@Hue+3,___flge@ff1+3
  4996   001582  0E00               	movlw	0
  4997   001584  6E05               	movwf	___flge@ff2^0,c
  4998   001586  0E00               	movlw	0
  4999   001588  6E06               	movwf	(___flge@ff2+1)^0,c
  5000   00158A  0E70               	movlw	112
  5001   00158C  6E07               	movwf	(___flge@ff2+2)^0,c
  5002   00158E  0E42               	movlw	66
  5003   001590  6E08               	movwf	(___flge@ff2+3)^0,c
  5004   001592  EC7A  F018         	call	___flge	;wreg free
  5005   001596  A0D8               	btfss	status,0,c
  5006   001598  EFD0  F00A         	goto	u3391
  5007   00159C  EFD2  F00A         	goto	u3390
  5008   0015A0                     u3391:
  5009   0015A0  EF12  F00B         	goto	l3299
  5010   0015A4                     u3390:
  5011   0015A4  0E00               	movlw	0
  5012   0015A6  6E01               	movwf	___flge@ff1^0,c
  5013   0015A8  0E00               	movlw	0
  5014   0015AA  6E02               	movwf	(___flge@ff1+1)^0,c
  5015   0015AC  0E9E               	movlw	158
  5016   0015AE  6E03               	movwf	(___flge@ff1+2)^0,c
  5017   0015B0  0E42               	movlw	66
  5018   0015B2  6E04               	movwf	(___flge@ff1+3)^0,c
  5019   0015B4  C07C  F005         	movff	Colour_decider@Hue,___flge@ff2
  5020   0015B8  C07D  F006         	movff	Colour_decider@Hue+1,___flge@ff2+1
  5021   0015BC  C07E  F007         	movff	Colour_decider@Hue+2,___flge@ff2+2
  5022   0015C0  C07F  F008         	movff	Colour_decider@Hue+3,___flge@ff2+3
  5023   0015C4  EC7A  F018         	call	___flge	;wreg free
  5024   0015C8  A0D8               	btfss	status,0,c
  5025   0015CA  EFE9  F00A         	goto	u3401
  5026   0015CE  EFEB  F00A         	goto	u3400
  5027   0015D2                     u3401:
  5028   0015D2  EF12  F00B         	goto	l3299
  5029   0015D6                     u3400:
  5030   0015D6                     
  5031                           ;color.c: 186:         if (0.15<=rel->B){
  5032   0015D6  EE20 F008          	lfsr	2,8
  5033   0015DA  504D               	movf	Colour_decider@rel^0,w,c
  5034   0015DC  26D9               	addwf	fsr2l,f,c
  5035   0015DE  504E               	movf	(Colour_decider@rel+1)^0,w,c
  5036   0015E0  22DA               	addwfc	fsr2h,f,c
  5037   0015E2  CFDE F001          	movff	postinc2,___flge@ff1
  5038   0015E6  CFDE F002          	movff	postinc2,___flge@ff1+1
  5039   0015EA  CFDE F003          	movff	postinc2,___flge@ff1+2
  5040   0015EE  CFDE F004          	movff	postinc2,___flge@ff1+3
  5041   0015F2  0E9A               	movlw	154
  5042   0015F4  6E05               	movwf	___flge@ff2^0,c
  5043   0015F6  0E99               	movlw	153
  5044   0015F8  6E06               	movwf	(___flge@ff2+1)^0,c
  5045   0015FA  0E19               	movlw	25
  5046   0015FC  6E07               	movwf	(___flge@ff2+2)^0,c
  5047   0015FE  0E3E               	movlw	62
  5048   001600  6E08               	movwf	(___flge@ff2+3)^0,c
  5049   001602  EC7A  F018         	call	___flge	;wreg free
  5050   001606  A0D8               	btfss	status,0,c
  5051   001608  EF08  F00B         	goto	u3411
  5052   00160C  EF0A  F00B         	goto	u3410
  5053   001610                     u3411:
  5054   001610  EF0C  F00B         	goto	l3295
  5055   001614                     u3410:
  5056   001614  EFB3  F00A         	goto	l3279
  5057   001618                     l3295:
  5058                           
  5059                           ;color.c: 190:             return 5;
  5060   001618  0E00               	movlw	0
  5061   00161A  6E4C               	movwf	(?_Colour_decider+1)^0,c
  5062   00161C  0E05               	movlw	5
  5063   00161E  6E4B               	movwf	?_Colour_decider^0,c
  5064   001620  EF6A  F00C         	goto	l68
  5065   001624                     l3299:
  5066   001624  C07C  F001         	movff	Colour_decider@Hue,___flge@ff1
  5067   001628  C07D  F002         	movff	Colour_decider@Hue+1,___flge@ff1+1
  5068   00162C  C07E  F003         	movff	Colour_decider@Hue+2,___flge@ff1+2
  5069   001630  C07F  F004         	movff	Colour_decider@Hue+3,___flge@ff1+3
  5070   001634  0E00               	movlw	0
  5071   001636  6E05               	movwf	___flge@ff2^0,c
  5072   001638  0E00               	movlw	0
  5073   00163A  6E06               	movwf	(___flge@ff2+1)^0,c
  5074   00163C  0EA0               	movlw	160
  5075   00163E  6E07               	movwf	(___flge@ff2+2)^0,c
  5076   001640  0E42               	movlw	66
  5077   001642  6E08               	movwf	(___flge@ff2+3)^0,c
  5078   001644  EC7A  F018         	call	___flge	;wreg free
  5079   001648  A0D8               	btfss	status,0,c
  5080   00164A  EF29  F00B         	goto	u3421
  5081   00164E  EF2B  F00B         	goto	u3420
  5082   001652                     u3421:
  5083   001652  EF6B  F00B         	goto	l3315
  5084   001656                     u3420:
  5085   001656  0E00               	movlw	0
  5086   001658  6E01               	movwf	___flge@ff1^0,c
  5087   00165A  0E00               	movlw	0
  5088   00165C  6E02               	movwf	(___flge@ff1+1)^0,c
  5089   00165E  0EE6               	movlw	230
  5090   001660  6E03               	movwf	(___flge@ff1+2)^0,c
  5091   001662  0E42               	movlw	66
  5092   001664  6E04               	movwf	(___flge@ff1+3)^0,c
  5093   001666  C07C  F005         	movff	Colour_decider@Hue,___flge@ff2
  5094   00166A  C07D  F006         	movff	Colour_decider@Hue+1,___flge@ff2+1
  5095   00166E  C07E  F007         	movff	Colour_decider@Hue+2,___flge@ff2+2
  5096   001672  C07F  F008         	movff	Colour_decider@Hue+3,___flge@ff2+3
  5097   001676  EC7A  F018         	call	___flge	;wreg free
  5098   00167A  A0D8               	btfss	status,0,c
  5099   00167C  EF42  F00B         	goto	u3431
  5100   001680  EF44  F00B         	goto	u3430
  5101   001684                     u3431:
  5102   001684  EF6B  F00B         	goto	l3315
  5103   001688                     u3430:
  5104   001688                     
  5105                           ;color.c: 195:         if (0.15<=rel->B){
  5106   001688  EE20 F008          	lfsr	2,8
  5107   00168C  504D               	movf	Colour_decider@rel^0,w,c
  5108   00168E  26D9               	addwf	fsr2l,f,c
  5109   001690  504E               	movf	(Colour_decider@rel+1)^0,w,c
  5110   001692  22DA               	addwfc	fsr2h,f,c
  5111   001694  CFDE F001          	movff	postinc2,___flge@ff1
  5112   001698  CFDE F002          	movff	postinc2,___flge@ff1+1
  5113   00169C  CFDE F003          	movff	postinc2,___flge@ff1+2
  5114   0016A0  CFDE F004          	movff	postinc2,___flge@ff1+3
  5115   0016A4  0E9A               	movlw	154
  5116   0016A6  6E05               	movwf	___flge@ff2^0,c
  5117   0016A8  0E99               	movlw	153
  5118   0016AA  6E06               	movwf	(___flge@ff2+1)^0,c
  5119   0016AC  0E19               	movlw	25
  5120   0016AE  6E07               	movwf	(___flge@ff2+2)^0,c
  5121   0016B0  0E3E               	movlw	62
  5122   0016B2  6E08               	movwf	(___flge@ff2+3)^0,c
  5123   0016B4  EC7A  F018         	call	___flge	;wreg free
  5124   0016B8  A0D8               	btfss	status,0,c
  5125   0016BA  EF61  F00B         	goto	u3441
  5126   0016BE  EF63  F00B         	goto	u3440
  5127   0016C2                     u3441:
  5128   0016C2  EF65  F00B         	goto	l3311
  5129   0016C6                     u3440:
  5130   0016C6  EFB3  F00A         	goto	l3279
  5131   0016CA                     l3311:
  5132                           
  5133                           ;color.c: 199:             return 6;
  5134   0016CA  0E00               	movlw	0
  5135   0016CC  6E4C               	movwf	(?_Colour_decider+1)^0,c
  5136   0016CE  0E06               	movlw	6
  5137   0016D0  6E4B               	movwf	?_Colour_decider^0,c
  5138   0016D2  EF6A  F00C         	goto	l68
  5139   0016D6                     l3315:
  5140   0016D6  C07C  F001         	movff	Colour_decider@Hue,___flge@ff1
  5141   0016DA  C07D  F002         	movff	Colour_decider@Hue+1,___flge@ff1+1
  5142   0016DE  C07E  F003         	movff	Colour_decider@Hue+2,___flge@ff1+2
  5143   0016E2  C07F  F004         	movff	Colour_decider@Hue+3,___flge@ff1+3
  5144   0016E6  0E00               	movlw	0
  5145   0016E8  6E05               	movwf	___flge@ff2^0,c
  5146   0016EA  0E00               	movlw	0
  5147   0016EC  6E06               	movwf	(___flge@ff2+1)^0,c
  5148   0016EE  0EF0               	movlw	240
  5149   0016F0  6E07               	movwf	(___flge@ff2+2)^0,c
  5150   0016F2  0E41               	movlw	65
  5151   0016F4  6E08               	movwf	(___flge@ff2+3)^0,c
  5152   0016F6  EC7A  F018         	call	___flge	;wreg free
  5153   0016FA  A0D8               	btfss	status,0,c
  5154   0016FC  EF82  F00B         	goto	u3451
  5155   001700  EF84  F00B         	goto	u3450
  5156   001704                     u3451:
  5157   001704  EF9D  F00B         	goto	l3319
  5158   001708                     u3450:
  5159   001708  0E00               	movlw	0
  5160   00170A  6E01               	movwf	___flge@ff1^0,c
  5161   00170C  0E00               	movlw	0
  5162   00170E  6E02               	movwf	(___flge@ff1+1)^0,c
  5163   001710  0E68               	movlw	104
  5164   001712  6E03               	movwf	(___flge@ff1+2)^0,c
  5165   001714  0E42               	movlw	66
  5166   001716  6E04               	movwf	(___flge@ff1+3)^0,c
  5167   001718  C07C  F005         	movff	Colour_decider@Hue,___flge@ff2
  5168   00171C  C07D  F006         	movff	Colour_decider@Hue+1,___flge@ff2+1
  5169   001720  C07E  F007         	movff	Colour_decider@Hue+2,___flge@ff2+2
  5170   001724  C07F  F008         	movff	Colour_decider@Hue+3,___flge@ff2+3
  5171   001728  EC7A  F018         	call	___flge	;wreg free
  5172   00172C  B0D8               	btfsc	status,0,c
  5173   00172E  EF9B  F00B         	goto	u3461
  5174   001732  EF9D  F00B         	goto	u3460
  5175   001736                     u3461:
  5176   001736  EFB3  F00A         	goto	l3279
  5177   00173A                     u3460:
  5178   00173A                     l3319:
  5179   00173A  C07C  F001         	movff	Colour_decider@Hue,___flge@ff1
  5180   00173E  C07D  F002         	movff	Colour_decider@Hue+1,___flge@ff1+1
  5181   001742  C07E  F003         	movff	Colour_decider@Hue+2,___flge@ff1+2
  5182   001746  C07F  F004         	movff	Colour_decider@Hue+3,___flge@ff1+3
  5183   00174A  0E00               	movlw	0
  5184   00174C  6E05               	movwf	___flge@ff2^0,c
  5185   00174E  0E00               	movlw	0
  5186   001750  6E06               	movwf	(___flge@ff2+1)^0,c
  5187   001752  0EF0               	movlw	240
  5188   001754  6E07               	movwf	(___flge@ff2+2)^0,c
  5189   001756  0E42               	movlw	66
  5190   001758  6E08               	movwf	(___flge@ff2+3)^0,c
  5191   00175A  EC7A  F018         	call	___flge	;wreg free
  5192   00175E  A0D8               	btfss	status,0,c
  5193   001760  EFB4  F00B         	goto	u3471
  5194   001764  EFB6  F00B         	goto	u3470
  5195   001768                     u3471:
  5196   001768  EFD1  F00B         	goto	l3329
  5197   00176C                     u3470:
  5198   00176C  0E00               	movlw	0
  5199   00176E  6E01               	movwf	___flge@ff1^0,c
  5200   001770  0E00               	movlw	0
  5201   001772  6E02               	movwf	(___flge@ff1+1)^0,c
  5202   001774  0E5C               	movlw	92
  5203   001776  6E03               	movwf	(___flge@ff1+2)^0,c
  5204   001778  0E43               	movlw	67
  5205   00177A  6E04               	movwf	(___flge@ff1+3)^0,c
  5206   00177C  C07C  F005         	movff	Colour_decider@Hue,___flge@ff2
  5207   001780  C07D  F006         	movff	Colour_decider@Hue+1,___flge@ff2+1
  5208   001784  C07E  F007         	movff	Colour_decider@Hue+2,___flge@ff2+2
  5209   001788  C07F  F008         	movff	Colour_decider@Hue+3,___flge@ff2+3
  5210   00178C  EC7A  F018         	call	___flge	;wreg free
  5211   001790  A0D8               	btfss	status,0,c
  5212   001792  EFCD  F00B         	goto	u3481
  5213   001796  EFCF  F00B         	goto	u3480
  5214   00179A                     u3481:
  5215   00179A  EFD1  F00B         	goto	l3329
  5216   00179E                     u3480:
  5217   00179E  EFB3  F00A         	goto	l3279
  5218   0017A2                     l3329:
  5219   0017A2  C07C  F001         	movff	Colour_decider@Hue,___flge@ff1
  5220   0017A6  C07D  F002         	movff	Colour_decider@Hue+1,___flge@ff1+1
  5221   0017AA  C07E  F003         	movff	Colour_decider@Hue+2,___flge@ff1+2
  5222   0017AE  C07F  F004         	movff	Colour_decider@Hue+3,___flge@ff1+3
  5223   0017B2  0E00               	movlw	0
  5224   0017B4  6E05               	movwf	___flge@ff2^0,c
  5225   0017B6  0E00               	movlw	0
  5226   0017B8  6E06               	movwf	(___flge@ff2+1)^0,c
  5227   0017BA  0E60               	movlw	96
  5228   0017BC  6E07               	movwf	(___flge@ff2+2)^0,c
  5229   0017BE  0E41               	movlw	65
  5230   0017C0  6E08               	movwf	(___flge@ff2+3)^0,c
  5231   0017C2  EC7A  F018         	call	___flge	;wreg free
  5232   0017C6  A0D8               	btfss	status,0,c
  5233   0017C8  EFE8  F00B         	goto	u3491
  5234   0017CC  EFEA  F00B         	goto	u3490
  5235   0017D0                     u3491:
  5236   0017D0  EF66  F00C         	goto	l3355
  5237   0017D4                     u3490:
  5238   0017D4  0E00               	movlw	0
  5239   0017D6  6E01               	movwf	___flge@ff1^0,c
  5240   0017D8  0E00               	movlw	0
  5241   0017DA  6E02               	movwf	(___flge@ff1+1)^0,c
  5242   0017DC  0E98               	movlw	152
  5243   0017DE  6E03               	movwf	(___flge@ff1+2)^0,c
  5244   0017E0  0E41               	movlw	65
  5245   0017E2  6E04               	movwf	(___flge@ff1+3)^0,c
  5246   0017E4  C07C  F005         	movff	Colour_decider@Hue,___flge@ff2
  5247   0017E8  C07D  F006         	movff	Colour_decider@Hue+1,___flge@ff2+1
  5248   0017EC  C07E  F007         	movff	Colour_decider@Hue+2,___flge@ff2+2
  5249   0017F0  C07F  F008         	movff	Colour_decider@Hue+3,___flge@ff2+3
  5250   0017F4  EC7A  F018         	call	___flge	;wreg free
  5251   0017F8  A0D8               	btfss	status,0,c
  5252   0017FA  EF01  F00C         	goto	u3501
  5253   0017FE  EF03  F00C         	goto	u3500
  5254   001802                     u3501:
  5255   001802  EF66  F00C         	goto	l3355
  5256   001806                     u3500:
  5257   001806                     
  5258                           ;color.c: 209:         if ((0.20<=rel->R)&(rel->R<=0.23)){
  5259   001806  C04D  FFD9         	movff	Colour_decider@rel,fsr2l
  5260   00180A  C04E  FFDA         	movff	Colour_decider@rel+1,fsr2h
  5261   00180E  CFDE F001          	movff	postinc2,___flge@ff1
  5262   001812  CFDE F002          	movff	postinc2,___flge@ff1+1
  5263   001816  CFDE F003          	movff	postinc2,___flge@ff1+2
  5264   00181A  CFDE F004          	movff	postinc2,___flge@ff1+3
  5265   00181E  0ECD               	movlw	205
  5266   001820  6E05               	movwf	___flge@ff2^0,c
  5267   001822  0ECC               	movlw	204
  5268   001824  6E06               	movwf	(___flge@ff2+1)^0,c
  5269   001826  0E4C               	movlw	76
  5270   001828  6E07               	movwf	(___flge@ff2+2)^0,c
  5271   00182A  0E3E               	movlw	62
  5272   00182C  6E08               	movwf	(___flge@ff2+3)^0,c
  5273   00182E  EC7A  F018         	call	___flge	;wreg free
  5274   001832  A0D8               	btfss	status,0,c
  5275   001834  EF1E  F00C         	goto	u3511
  5276   001838  EF20  F00C         	goto	u3510
  5277   00183C                     u3511:
  5278   00183C  EF3F  F00C         	goto	l3343
  5279   001840                     u3510:
  5280   001840  0E1F               	movlw	31
  5281   001842  6E01               	movwf	___flge@ff1^0,c
  5282   001844  0E85               	movlw	133
  5283   001846  6E02               	movwf	(___flge@ff1+1)^0,c
  5284   001848  0E6B               	movlw	107
  5285   00184A  6E03               	movwf	(___flge@ff1+2)^0,c
  5286   00184C  0E3E               	movlw	62
  5287   00184E  6E04               	movwf	(___flge@ff1+3)^0,c
  5288   001850  C04D  FFD9         	movff	Colour_decider@rel,fsr2l
  5289   001854  C04E  FFDA         	movff	Colour_decider@rel+1,fsr2h
  5290   001858  CFDE F005          	movff	postinc2,___flge@ff2
  5291   00185C  CFDE F006          	movff	postinc2,___flge@ff2+1
  5292   001860  CFDE F007          	movff	postinc2,___flge@ff2+2
  5293   001864  CFDE F008          	movff	postinc2,___flge@ff2+3
  5294   001868  EC7A  F018         	call	___flge	;wreg free
  5295   00186C  A0D8               	btfss	status,0,c
  5296   00186E  EF3B  F00C         	goto	u3521
  5297   001872  EF3D  F00C         	goto	u3520
  5298   001876                     u3521:
  5299   001876  EF3F  F00C         	goto	l3343
  5300   00187A                     u3520:
  5301   00187A  EF59  F008         	goto	l3217
  5302   00187E                     l3343:
  5303   00187E  EE20 F008          	lfsr	2,8
  5304   001882  504D               	movf	Colour_decider@rel^0,w,c
  5305   001884  26D9               	addwf	fsr2l,f,c
  5306   001886  504E               	movf	(Colour_decider@rel+1)^0,w,c
  5307   001888  22DA               	addwfc	fsr2h,f,c
  5308   00188A  CFDE F001          	movff	postinc2,___flge@ff1
  5309   00188E  CFDE F002          	movff	postinc2,___flge@ff1+1
  5310   001892  CFDE F003          	movff	postinc2,___flge@ff1+2
  5311   001896  CFDE F004          	movff	postinc2,___flge@ff1+3
  5312   00189A  0E9A               	movlw	154
  5313   00189C  6E05               	movwf	___flge@ff2^0,c
  5314   00189E  0E99               	movlw	153
  5315   0018A0  6E06               	movwf	(___flge@ff2+1)^0,c
  5316   0018A2  0E19               	movlw	25
  5317   0018A4  6E07               	movwf	(___flge@ff2+2)^0,c
  5318   0018A6  0E3E               	movlw	62
  5319   0018A8  6E08               	movwf	(___flge@ff2+3)^0,c
  5320   0018AA  EC7A  F018         	call	___flge	;wreg free
  5321   0018AE  A0D8               	btfss	status,0,c
  5322   0018B0  EF5C  F00C         	goto	u3531
  5323   0018B4  EF5E  F00C         	goto	u3530
  5324   0018B8                     u3531:
  5325   0018B8  EF60  F00C         	goto	l3351
  5326   0018BC                     u3530:
  5327   0018BC  EFB3  F00A         	goto	l3279
  5328   0018C0                     l3351:
  5329                           
  5330                           ;color.c: 217:             return 7;
  5331   0018C0  0E00               	movlw	0
  5332   0018C2  6E4C               	movwf	(?_Colour_decider+1)^0,c
  5333   0018C4  0E07               	movlw	7
  5334   0018C6  6E4B               	movwf	?_Colour_decider^0,c
  5335   0018C8  EF6A  F00C         	goto	l68
  5336   0018CC                     l3355:
  5337                           
  5338                           ;color.c: 221:         return 10;
  5339   0018CC  0E00               	movlw	0
  5340   0018CE  6E4C               	movwf	(?_Colour_decider+1)^0,c
  5341   0018D0  0E0A               	movlw	10
  5342   0018D2  6E4B               	movwf	?_Colour_decider^0,c
  5343   0018D4                     l68:
  5344   0018D4  0012               	return		;funcret
  5345   0018D6                     __end_of_Colour_decider:
  5346                           	callstack 0
  5347                           
  5348 ;; *************** function ___xxtofl *****************
  5349 ;; Defined at:
  5350 ;;		line 10 in file "C:\Program Files\Microchip\xc8\v2.40\pic\sources\c99\common\xxtofl.c"
  5351 ;; Parameters:    Size  Location     Type
  5352 ;;  sign            1    wreg     unsigned char 
  5353 ;;  val             4    0[COMRAM] long 
  5354 ;; Auto vars:     Size  Location     Type
  5355 ;;  sign            1    8[COMRAM] unsigned char 
  5356 ;;  arg             4   10[COMRAM] unsigned long 
  5357 ;;  exp             1    9[COMRAM] unsigned char 
  5358 ;; Return value:  Size  Location     Type
  5359 ;;                  4    0[COMRAM] unsigned char 
  5360 ;; Registers used:
  5361 ;;		wreg, status,2, status,0
  5362 ;; Tracked objects:
  5363 ;;		On entry : 0/0
  5364 ;;		On exit  : 0/0
  5365 ;;		Unchanged: 0/0
  5366 ;; Data sizes:     COMRAM   BANK0   BANK1   BANK2   BANK3   BANK4   BANK5   BANK6   BANK7   BANK8   BANK9  BANK10  BANK1
      +1  BANK12  BANK13
  5367 ;;      Params:         4       0       0       0       0       0       0       0       0       0       0       0       
      +0       0       0
  5368 ;;      Locals:         6       0       0       0       0       0       0       0       0       0       0       0       
      +0       0       0
  5369 ;;      Temps:          4       0       0       0       0       0       0       0       0       0       0       0       
      +0       0       0
  5370 ;;      Totals:        14       0       0       0       0       0       0       0       0       0       0       0       
      +0       0       0
  5371 ;;Total ram usage:       14 bytes
  5372 ;; Hardware stack levels used: 1
  5373 ;; Hardware stack levels required when called: 1
  5374 ;; This function calls:
  5375 ;;		Nothing
  5376 ;; This function is called by:
  5377 ;;		_colour_rel
  5378 ;;		_Colour_decider
  5379 ;; This function uses a non-reentrant model
  5380 ;;
  5381                           
  5382                           	psect	text32
  5383   002B06                     __ptext32:
  5384                           	callstack 0
  5385   002B06                     ___xxtofl:
  5386                           	callstack 28
  5387                           
  5388                           ;incstack = 0
  5389                           ;___xxtofl@sign stored from wreg
  5390   002B06  6E09               	movwf	___xxtofl@sign^0,c
  5391   002B08  5009               	movf	___xxtofl@sign^0,w,c
  5392   002B0A  B4D8               	btfsc	status,2,c
  5393   002B0C  EF8A  F015         	goto	u3111
  5394   002B10  EF8C  F015         	goto	u3110
  5395   002B14                     u3111:
  5396   002B14  EFAE  F015         	goto	l984
  5397   002B18                     u3110:
  5398   002B18  BE04               	btfsc	(___xxtofl@val+3)^0,7,c
  5399   002B1A  EF93  F015         	goto	u3120
  5400   002B1E  EF91  F015         	goto	u3121
  5401   002B22                     u3121:
  5402   002B22  EFAE  F015         	goto	l984
  5403   002B26                     u3120:
  5404   002B26  C001  F005         	movff	___xxtofl@val,??___xxtofl
  5405   002B2A  C002  F006         	movff	___xxtofl@val+1,??___xxtofl+1
  5406   002B2E  C003  F007         	movff	___xxtofl@val+2,??___xxtofl+2
  5407   002B32  C004  F008         	movff	___xxtofl@val+3,??___xxtofl+3
  5408   002B36  1E05               	comf	??___xxtofl^0,f,c
  5409   002B38  1E06               	comf	(??___xxtofl+1)^0,f,c
  5410   002B3A  1E07               	comf	(??___xxtofl+2)^0,f,c
  5411   002B3C  1E08               	comf	(??___xxtofl+3)^0,f,c
  5412   002B3E  2A05               	incf	??___xxtofl^0,f,c
  5413   002B40  0E00               	movlw	0
  5414   002B42  2206               	addwfc	(??___xxtofl+1)^0,f,c
  5415   002B44  2207               	addwfc	(??___xxtofl+2)^0,f,c
  5416   002B46  2208               	addwfc	(??___xxtofl+3)^0,f,c
  5417   002B48  C005  F00B         	movff	??___xxtofl,___xxtofl@arg
  5418   002B4C  C006  F00C         	movff	??___xxtofl+1,___xxtofl@arg+1
  5419   002B50  C007  F00D         	movff	??___xxtofl+2,___xxtofl@arg+2
  5420   002B54  C008  F00E         	movff	??___xxtofl+3,___xxtofl@arg+3
  5421   002B58  EFB6  F015         	goto	l3087
  5422   002B5C                     l984:
  5423   002B5C  C001  F00B         	movff	___xxtofl@val,___xxtofl@arg
  5424   002B60  C002  F00C         	movff	___xxtofl@val+1,___xxtofl@arg+1
  5425   002B64  C003  F00D         	movff	___xxtofl@val+2,___xxtofl@arg+2
  5426   002B68  C004  F00E         	movff	___xxtofl@val+3,___xxtofl@arg+3
  5427   002B6C                     l3087:
  5428   002B6C  5001               	movf	___xxtofl@val^0,w,c
  5429   002B6E  1002               	iorwf	(___xxtofl@val+1)^0,w,c
  5430   002B70  1003               	iorwf	(___xxtofl@val+2)^0,w,c
  5431   002B72  1004               	iorwf	(___xxtofl@val+3)^0,w,c
  5432   002B74  A4D8               	btfss	status,2,c
  5433   002B76  EFBF  F015         	goto	u3131
  5434   002B7A  EFC1  F015         	goto	u3130
  5435   002B7E                     u3131:
  5436   002B7E  EFCB  F015         	goto	l3093
  5437   002B82                     u3130:
  5438   002B82  0E00               	movlw	0
  5439   002B84  6E01               	movwf	?___xxtofl^0,c
  5440   002B86  0E00               	movlw	0
  5441   002B88  6E02               	movwf	(?___xxtofl+1)^0,c
  5442   002B8A  0E00               	movlw	0
  5443   002B8C  6E03               	movwf	(?___xxtofl+2)^0,c
  5444   002B8E  0E00               	movlw	0
  5445   002B90  6E04               	movwf	(?___xxtofl+3)^0,c
  5446   002B92  EF5C  F016         	goto	l987
  5447   002B96                     l3093:
  5448   002B96  0E96               	movlw	150
  5449   002B98  6E0A               	movwf	___xxtofl@exp^0,c
  5450   002B9A  EFD5  F015         	goto	l3097
  5451   002B9E                     l3095:
  5452   002B9E  2A0A               	incf	___xxtofl@exp^0,f,c
  5453   002BA0  90D8               	bcf	status,0,c
  5454   002BA2  320E               	rrcf	(___xxtofl@arg+3)^0,f,c
  5455   002BA4  320D               	rrcf	(___xxtofl@arg+2)^0,f,c
  5456   002BA6  320C               	rrcf	(___xxtofl@arg+1)^0,f,c
  5457   002BA8  320B               	rrcf	___xxtofl@arg^0,f,c
  5458   002BAA                     l3097:
  5459   002BAA  0E00               	movlw	0
  5460   002BAC  140B               	andwf	___xxtofl@arg^0,w,c
  5461   002BAE  6E05               	movwf	??___xxtofl^0,c
  5462   002BB0  0E00               	movlw	0
  5463   002BB2  140C               	andwf	(___xxtofl@arg+1)^0,w,c
  5464   002BB4  6E06               	movwf	(??___xxtofl+1)^0,c
  5465   002BB6  0E00               	movlw	0
  5466   002BB8  140D               	andwf	(___xxtofl@arg+2)^0,w,c
  5467   002BBA  6E07               	movwf	(??___xxtofl+2)^0,c
  5468   002BBC  0EFE               	movlw	254
  5469   002BBE  140E               	andwf	(___xxtofl@arg+3)^0,w,c
  5470   002BC0  6E08               	movwf	(??___xxtofl+3)^0,c
  5471   002BC2  5005               	movf	??___xxtofl^0,w,c
  5472   002BC4  1006               	iorwf	(??___xxtofl+1)^0,w,c
  5473   002BC6  1007               	iorwf	(??___xxtofl+2)^0,w,c
  5474   002BC8  1008               	iorwf	(??___xxtofl+3)^0,w,c
  5475   002BCA  A4D8               	btfss	status,2,c
  5476   002BCC  EFEA  F015         	goto	u3141
  5477   002BD0  EFEC  F015         	goto	u3140
  5478   002BD4                     u3141:
  5479   002BD4  EFCF  F015         	goto	l3095
  5480   002BD8                     u3140:
  5481   002BD8  EFFA  F015         	goto	l991
  5482   002BDC                     l3099:
  5483   002BDC  2A0A               	incf	___xxtofl@exp^0,f,c
  5484   002BDE  0E01               	movlw	1
  5485   002BE0  260B               	addwf	___xxtofl@arg^0,f,c
  5486   002BE2  0E00               	movlw	0
  5487   002BE4  220C               	addwfc	(___xxtofl@arg+1)^0,f,c
  5488   002BE6  220D               	addwfc	(___xxtofl@arg+2)^0,f,c
  5489   002BE8  220E               	addwfc	(___xxtofl@arg+3)^0,f,c
  5490   002BEA  90D8               	bcf	status,0,c
  5491   002BEC  320E               	rrcf	(___xxtofl@arg+3)^0,f,c
  5492   002BEE  320D               	rrcf	(___xxtofl@arg+2)^0,f,c
  5493   002BF0  320C               	rrcf	(___xxtofl@arg+1)^0,f,c
  5494   002BF2  320B               	rrcf	___xxtofl@arg^0,f,c
  5495   002BF4                     l991:
  5496   002BF4  0E00               	movlw	0
  5497   002BF6  140B               	andwf	___xxtofl@arg^0,w,c
  5498   002BF8  6E05               	movwf	??___xxtofl^0,c
  5499   002BFA  0E00               	movlw	0
  5500   002BFC  140C               	andwf	(___xxtofl@arg+1)^0,w,c
  5501   002BFE  6E06               	movwf	(??___xxtofl+1)^0,c
  5502   002C00  0E00               	movlw	0
  5503   002C02  140D               	andwf	(___xxtofl@arg+2)^0,w,c
  5504   002C04  6E07               	movwf	(??___xxtofl+2)^0,c
  5505   002C06  0EFF               	movlw	255
  5506   002C08  140E               	andwf	(___xxtofl@arg+3)^0,w,c
  5507   002C0A  6E08               	movwf	(??___xxtofl+3)^0,c
  5508   002C0C  5005               	movf	??___xxtofl^0,w,c
  5509   002C0E  1006               	iorwf	(??___xxtofl+1)^0,w,c
  5510   002C10  1007               	iorwf	(??___xxtofl+2)^0,w,c
  5511   002C12  1008               	iorwf	(??___xxtofl+3)^0,w,c
  5512   002C14  A4D8               	btfss	status,2,c
  5513   002C16  EF0F  F016         	goto	u3151
  5514   002C1A  EF11  F016         	goto	u3150
  5515   002C1E                     u3151:
  5516   002C1E  EFEE  F015         	goto	l3099
  5517   002C22                     u3150:
  5518   002C22  EF19  F016         	goto	l3107
  5519   002C26                     l3105:
  5520   002C26  060A               	decf	___xxtofl@exp^0,f,c
  5521   002C28  90D8               	bcf	status,0,c
  5522   002C2A  360B               	rlcf	___xxtofl@arg^0,f,c
  5523   002C2C  360C               	rlcf	(___xxtofl@arg+1)^0,f,c
  5524   002C2E  360D               	rlcf	(___xxtofl@arg+2)^0,f,c
  5525   002C30  360E               	rlcf	(___xxtofl@arg+3)^0,f,c
  5526   002C32                     l3107:
  5527   002C32  BE0D               	btfsc	(___xxtofl@arg+2)^0,7,c
  5528   002C34  EF1E  F016         	goto	u3161
  5529   002C38  EF20  F016         	goto	u3160
  5530   002C3C                     u3161:
  5531   002C3C  EF28  F016         	goto	l998
  5532   002C40                     u3160:
  5533   002C40  0E02               	movlw	2
  5534   002C42  600A               	cpfslt	___xxtofl@exp^0,c
  5535   002C44  EF26  F016         	goto	u3171
  5536   002C48  EF28  F016         	goto	u3170
  5537   002C4C                     u3171:
  5538   002C4C  EF13  F016         	goto	l3105
  5539   002C50                     u3170:
  5540   002C50                     l998:
  5541   002C50  B00A               	btfsc	___xxtofl@exp^0,0,c
  5542   002C52  EF2D  F016         	goto	u3181
  5543   002C56  EF2F  F016         	goto	u3180
  5544   002C5A                     u3181:
  5545   002C5A  EF30  F016         	goto	l3113
  5546   002C5E                     u3180:
  5547   002C5E  9E0D               	bcf	(___xxtofl@arg+2)^0,7,c
  5548   002C60                     l3113:
  5549   002C60  90D8               	bcf	status,0,c
  5550   002C62  320A               	rrcf	___xxtofl@exp^0,f,c
  5551   002C64  C00A  F005         	movff	___xxtofl@exp,??___xxtofl
  5552   002C68  6A06               	clrf	(??___xxtofl+1)^0,c
  5553   002C6A  6A07               	clrf	(??___xxtofl+2)^0,c
  5554   002C6C  6A08               	clrf	(??___xxtofl+3)^0,c
  5555   002C6E  C005  F008         	movff	??___xxtofl,??___xxtofl+3
  5556   002C72  6A07               	clrf	(??___xxtofl+2)^0,c
  5557   002C74  6A06               	clrf	(??___xxtofl+1)^0,c
  5558   002C76  6A05               	clrf	??___xxtofl^0,c
  5559   002C78  5005               	movf	??___xxtofl^0,w,c
  5560   002C7A  120B               	iorwf	___xxtofl@arg^0,f,c
  5561   002C7C  5006               	movf	(??___xxtofl+1)^0,w,c
  5562   002C7E  120C               	iorwf	(___xxtofl@arg+1)^0,f,c
  5563   002C80  5007               	movf	(??___xxtofl+2)^0,w,c
  5564   002C82  120D               	iorwf	(___xxtofl@arg+2)^0,f,c
  5565   002C84  5008               	movf	(??___xxtofl+3)^0,w,c
  5566   002C86  120E               	iorwf	(___xxtofl@arg+3)^0,f,c
  5567   002C88  5009               	movf	___xxtofl@sign^0,w,c
  5568   002C8A  B4D8               	btfsc	status,2,c
  5569   002C8C  EF4A  F016         	goto	u3191
  5570   002C90  EF4C  F016         	goto	u3190
  5571   002C94                     u3191:
  5572   002C94  EF54  F016         	goto	l3123
  5573   002C98                     u3190:
  5574   002C98  BE04               	btfsc	(___xxtofl@val+3)^0,7,c
  5575   002C9A  EF53  F016         	goto	u3200
  5576   002C9E  EF51  F016         	goto	u3201
  5577   002CA2                     u3201:
  5578   002CA2  EF54  F016         	goto	l3123
  5579   002CA6                     u3200:
  5580   002CA6  8E0E               	bsf	(___xxtofl@arg+3)^0,7,c
  5581   002CA8                     l3123:
  5582   002CA8  C00B  F001         	movff	___xxtofl@arg,?___xxtofl
  5583   002CAC  C00C  F002         	movff	___xxtofl@arg+1,?___xxtofl+1
  5584   002CB0  C00D  F003         	movff	___xxtofl@arg+2,?___xxtofl+2
  5585   002CB4  C00E  F004         	movff	___xxtofl@arg+3,?___xxtofl+3
  5586   002CB8                     l987:
  5587   002CB8  0012               	return		;funcret
  5588   002CBA                     __end_of___xxtofl:
  5589                           	callstack 0
  5590                           
  5591 ;; *************** function ___flsub *****************
  5592 ;; Defined at:
  5593 ;;		line 245 in file "C:\Program Files\Microchip\xc8\v2.40\pic\sources\c99\common\sprcadd.c"
  5594 ;; Parameters:    Size  Location     Type
  5595 ;;  b               4   16[COMRAM] unsigned char 
  5596 ;;  a               4   20[COMRAM] unsigned char 
  5597 ;; Auto vars:     Size  Location     Type
  5598 ;;		None
  5599 ;; Return value:  Size  Location     Type
  5600 ;;                  4   16[COMRAM] unsigned char 
  5601 ;; Registers used:
  5602 ;;		wreg, status,2, status,0, cstack
  5603 ;; Tracked objects:
  5604 ;;		On entry : 0/0
  5605 ;;		On exit  : 0/0
  5606 ;;		Unchanged: 0/0
  5607 ;; Data sizes:     COMRAM   BANK0   BANK1   BANK2   BANK3   BANK4   BANK5   BANK6   BANK7   BANK8   BANK9  BANK10  BANK1
      +1  BANK12  BANK13
  5608 ;;      Params:         8       0       0       0       0       0       0       0       0       0       0       0       
      +0       0       0
  5609 ;;      Locals:         0       0       0       0       0       0       0       0       0       0       0       0       
      +0       0       0
  5610 ;;      Temps:          0       0       0       0       0       0       0       0       0       0       0       0       
      +0       0       0
  5611 ;;      Totals:         8       0       0       0       0       0       0       0       0       0       0       0       
      +0       0       0
  5612 ;;Total ram usage:        8 bytes
  5613 ;; Hardware stack levels used: 1
  5614 ;; Hardware stack levels required when called: 2
  5615 ;; This function calls:
  5616 ;;		___fladd
  5617 ;; This function is called by:
  5618 ;;		_Colour_decider
  5619 ;; This function uses a non-reentrant model
  5620 ;;
  5621                           
  5622                           	psect	text33
  5623   0037CE                     __ptext33:
  5624                           	callstack 0
  5625   0037CE                     ___flsub:
  5626                           	callstack 27
  5627   0037CE  0E00               	movlw	0
  5628   0037D0  1A15               	xorwf	___flsub@a^0,f,c
  5629   0037D2  0E00               	movlw	0
  5630   0037D4  1A16               	xorwf	(___flsub@a+1)^0,f,c
  5631   0037D6  0E00               	movlw	0
  5632   0037D8  1A17               	xorwf	(___flsub@a+2)^0,f,c
  5633   0037DA  0E80               	movlw	128
  5634   0037DC  1A18               	xorwf	(___flsub@a+3)^0,f,c
  5635   0037DE  C011  F001         	movff	___flsub@b,___fladd@b
  5636   0037E2  C012  F002         	movff	___flsub@b+1,___fladd@b+1
  5637   0037E6  C013  F003         	movff	___flsub@b+2,___fladd@b+2
  5638   0037EA  C014  F004         	movff	___flsub@b+3,___fladd@b+3
  5639   0037EE  C015  F005         	movff	___flsub@a,___fladd@a
  5640   0037F2  C016  F006         	movff	___flsub@a+1,___fladd@a+1
  5641   0037F6  C017  F007         	movff	___flsub@a+2,___fladd@a+2
  5642   0037FA  C018  F008         	movff	___flsub@a+3,___fladd@a+3
  5643   0037FE  EC6B  F00C         	call	___fladd	;wreg free
  5644   003802  C001  F011         	movff	?___fladd,?___flsub
  5645   003806  C002  F012         	movff	?___fladd+1,?___flsub+1
  5646   00380A  C003  F013         	movff	?___fladd+2,?___flsub+2
  5647   00380E  C004  F014         	movff	?___fladd+3,?___flsub+3
  5648   003812  0012               	return		;funcret
  5649   003814                     __end_of___flsub:
  5650                           	callstack 0
  5651                           
  5652 ;; *************** function ___fladd *****************
  5653 ;; Defined at:
  5654 ;;		line 10 in file "C:\Program Files\Microchip\xc8\v2.40\pic\sources\c99\common\sprcadd.c"
  5655 ;; Parameters:    Size  Location     Type
  5656 ;;  b               4    0[COMRAM] unsigned char 
  5657 ;;  a               4    4[COMRAM] unsigned char 
  5658 ;; Auto vars:     Size  Location     Type
  5659 ;;  grs             1   15[COMRAM] unsigned char 
  5660 ;;  bexp            1   14[COMRAM] unsigned char 
  5661 ;;  aexp            1   13[COMRAM] unsigned char 
  5662 ;;  signs           1   12[COMRAM] unsigned char 
  5663 ;; Return value:  Size  Location     Type
  5664 ;;                  4    0[COMRAM] unsigned char 
  5665 ;; Registers used:
  5666 ;;		wreg, status,2, status,0
  5667 ;; Tracked objects:
  5668 ;;		On entry : 0/0
  5669 ;;		On exit  : 0/0
  5670 ;;		Unchanged: 0/0
  5671 ;; Data sizes:     COMRAM   BANK0   BANK1   BANK2   BANK3   BANK4   BANK5   BANK6   BANK7   BANK8   BANK9  BANK10  BANK1
      +1  BANK12  BANK13
  5672 ;;      Params:         8       0       0       0       0       0       0       0       0       0       0       0       
      +0       0       0
  5673 ;;      Locals:         4       0       0       0       0       0       0       0       0       0       0       0       
      +0       0       0
  5674 ;;      Temps:          4       0       0       0       0       0       0       0       0       0       0       0       
      +0       0       0
  5675 ;;      Totals:        16       0       0       0       0       0       0       0       0       0       0       0       
      +0       0       0
  5676 ;;Total ram usage:       16 bytes
  5677 ;; Hardware stack levels used: 1
  5678 ;; Hardware stack levels required when called: 1
  5679 ;; This function calls:
  5680 ;;		Nothing
  5681 ;; This function is called by:
  5682 ;;		_colour_rel
  5683 ;;		_Colour_decider
  5684 ;;		___flsub
  5685 ;; This function uses a non-reentrant model
  5686 ;;
  5687                           
  5688                           	psect	text34
  5689   0018D6                     __ptext34:
  5690                           	callstack 0
  5691   0018D6                     ___fladd:
  5692                           	callstack 28
  5693   0018D6  5004               	movf	(___fladd@b+3)^0,w,c
  5694   0018D8  0B80               	andlw	128
  5695   0018DA  6E0D               	movwf	___fladd@signs^0,c
  5696   0018DC  5004               	movf	(___fladd@b+3)^0,w,c
  5697   0018DE  2404               	addwf	(___fladd@b+3)^0,w,c
  5698   0018E0  6E0F               	movwf	___fladd@bexp^0,c
  5699   0018E2  AE03               	btfss	(___fladd@b+2)^0,7,c
  5700   0018E4  EF76  F00C         	goto	u2181
  5701   0018E8  EF78  F00C         	goto	u2180
  5702   0018EC                     u2181:
  5703   0018EC  EF79  F00C         	goto	l2501
  5704   0018F0                     u2180:
  5705   0018F0  800F               	bsf	___fladd@bexp^0,0,c
  5706   0018F2                     l2501:
  5707   0018F2  500F               	movf	___fladd@bexp^0,w,c
  5708   0018F4  B4D8               	btfsc	status,2,c
  5709   0018F6  EF7F  F00C         	goto	u2191
  5710   0018FA  EF81  F00C         	goto	u2190
  5711   0018FE                     u2191:
  5712   0018FE  EF96  F00C         	goto	l2511
  5713   001902                     u2190:
  5714   001902  280F               	incf	___fladd@bexp^0,w,c
  5715   001904  A4D8               	btfss	status,2,c
  5716   001906  EF87  F00C         	goto	u2201
  5717   00190A  EF89  F00C         	goto	u2200
  5718   00190E                     u2201:
  5719   00190E  EF91  F00C         	goto	l2507
  5720   001912                     u2200:
  5721   001912  0E00               	movlw	0
  5722   001914  6E01               	movwf	___fladd@b^0,c
  5723   001916  0E00               	movlw	0
  5724   001918  6E02               	movwf	(___fladd@b+1)^0,c
  5725   00191A  0E00               	movlw	0
  5726   00191C  6E03               	movwf	(___fladd@b+2)^0,c
  5727   00191E  0E00               	movlw	0
  5728   001920  6E04               	movwf	(___fladd@b+3)^0,c
  5729   001922                     l2507:
  5730   001922  8E03               	bsf	(___fladd@b+2)^0,7,c
  5731   001924  0E00               	movlw	0
  5732   001926  6E04               	movwf	(___fladd@b+3)^0,c
  5733   001928  EF9E  F00C         	goto	l2513
  5734   00192C                     l2511:
  5735   00192C  0E00               	movlw	0
  5736   00192E  6E01               	movwf	___fladd@b^0,c
  5737   001930  0E00               	movlw	0
  5738   001932  6E02               	movwf	(___fladd@b+1)^0,c
  5739   001934  0E00               	movlw	0
  5740   001936  6E03               	movwf	(___fladd@b+2)^0,c
  5741   001938  0E00               	movlw	0
  5742   00193A  6E04               	movwf	(___fladd@b+3)^0,c
  5743   00193C                     l2513:
  5744   00193C  5008               	movf	(___fladd@a+3)^0,w,c
  5745   00193E  0B80               	andlw	128
  5746   001940  6E0E               	movwf	___fladd@aexp^0,c
  5747   001942  500D               	movf	___fladd@signs^0,w,c
  5748   001944  180E               	xorwf	___fladd@aexp^0,w,c
  5749   001946  B4D8               	btfsc	status,2,c
  5750   001948  EFA8  F00C         	goto	u2211
  5751   00194C  EFAA  F00C         	goto	u2210
  5752   001950                     u2211:
  5753   001950  EFAB  F00C         	goto	l2519
  5754   001954                     u2210:
  5755   001954  8C0D               	bsf	___fladd@signs^0,6,c
  5756   001956                     l2519:
  5757   001956  5008               	movf	(___fladd@a+3)^0,w,c
  5758   001958  2408               	addwf	(___fladd@a+3)^0,w,c
  5759   00195A  6E0E               	movwf	___fladd@aexp^0,c
  5760   00195C  AE07               	btfss	(___fladd@a+2)^0,7,c
  5761   00195E  EFB3  F00C         	goto	u2221
  5762   001962  EFB5  F00C         	goto	u2220
  5763   001966                     u2221:
  5764   001966  EFB6  F00C         	goto	l2525
  5765   00196A                     u2220:
  5766   00196A  800E               	bsf	___fladd@aexp^0,0,c
  5767   00196C                     l2525:
  5768   00196C  500E               	movf	___fladd@aexp^0,w,c
  5769   00196E  B4D8               	btfsc	status,2,c
  5770   001970  EFBC  F00C         	goto	u2231
  5771   001974  EFBE  F00C         	goto	u2230
  5772   001978                     u2231:
  5773   001978  EFD3  F00C         	goto	l2535
  5774   00197C                     u2230:
  5775   00197C  280E               	incf	___fladd@aexp^0,w,c
  5776   00197E  A4D8               	btfss	status,2,c
  5777   001980  EFC4  F00C         	goto	u2241
  5778   001984  EFC6  F00C         	goto	u2240
  5779   001988                     u2241:
  5780   001988  EFCE  F00C         	goto	l2531
  5781   00198C                     u2240:
  5782   00198C  0E00               	movlw	0
  5783   00198E  6E05               	movwf	___fladd@a^0,c
  5784   001990  0E00               	movlw	0
  5785   001992  6E06               	movwf	(___fladd@a+1)^0,c
  5786   001994  0E00               	movlw	0
  5787   001996  6E07               	movwf	(___fladd@a+2)^0,c
  5788   001998  0E00               	movlw	0
  5789   00199A  6E08               	movwf	(___fladd@a+3)^0,c
  5790   00199C                     l2531:
  5791   00199C  8E07               	bsf	(___fladd@a+2)^0,7,c
  5792   00199E  0E00               	movlw	0
  5793   0019A0  6E08               	movwf	(___fladd@a+3)^0,c
  5794   0019A2  EFDB  F00C         	goto	l2537
  5795   0019A6                     l2535:
  5796   0019A6  0E00               	movlw	0
  5797   0019A8  6E05               	movwf	___fladd@a^0,c
  5798   0019AA  0E00               	movlw	0
  5799   0019AC  6E06               	movwf	(___fladd@a+1)^0,c
  5800   0019AE  0E00               	movlw	0
  5801   0019B0  6E07               	movwf	(___fladd@a+2)^0,c
  5802   0019B2  0E00               	movlw	0
  5803   0019B4  6E08               	movwf	(___fladd@a+3)^0,c
  5804   0019B6                     l2537:
  5805   0019B6  500F               	movf	___fladd@bexp^0,w,c
  5806   0019B8  5C0E               	subwf	___fladd@aexp^0,w,c
  5807   0019BA  B0D8               	btfsc	status,0,c
  5808   0019BC  EFE2  F00C         	goto	u2251
  5809   0019C0  EFE4  F00C         	goto	u2250
  5810   0019C4                     u2251:
  5811   0019C4  EF0B  F00D         	goto	l2573
  5812   0019C8                     u2250:
  5813   0019C8  AC0D               	btfss	___fladd@signs^0,6,c
  5814   0019CA  EFE9  F00C         	goto	u2261
  5815   0019CE  EFEB  F00C         	goto	u2260
  5816   0019D2                     u2261:
  5817   0019D2  EFED  F00C         	goto	l2543
  5818   0019D6                     u2260:
  5819   0019D6  0E80               	movlw	128
  5820   0019D8  1A0D               	xorwf	___fladd@signs^0,f,c
  5821   0019DA                     l2543:
  5822   0019DA  C00F  F010         	movff	___fladd@bexp,___fladd@grs
  5823   0019DE  C00E  F00F         	movff	___fladd@aexp,___fladd@bexp
  5824   0019E2  C010  F00E         	movff	___fladd@grs,___fladd@aexp
  5825   0019E6  C001  F010         	movff	___fladd@b,___fladd@grs
  5826   0019EA  C005  F001         	movff	___fladd@a,___fladd@b
  5827   0019EE  C010  F005         	movff	___fladd@grs,___fladd@a
  5828   0019F2  C002  F010         	movff	___fladd@b+1,___fladd@grs
  5829   0019F6  C006  F002         	movff	___fladd@a+1,___fladd@b+1
  5830   0019FA  C010  F006         	movff	___fladd@grs,___fladd@a+1
  5831   0019FE  C003  F010         	movff	___fladd@b+2,___fladd@grs
  5832   001A02  C007  F003         	movff	___fladd@a+2,___fladd@b+2
  5833   001A06  C010  F007         	movff	___fladd@grs,___fladd@a+2
  5834   001A0A  C004  F010         	movff	___fladd@b+3,___fladd@grs
  5835   001A0E  C008  F004         	movff	___fladd@a+3,___fladd@b+3
  5836   001A12  C010  F008         	movff	___fladd@grs,___fladd@a+3
  5837   001A16                     l2573:
  5838   001A16  0E00               	movlw	0
  5839   001A18  6E10               	movwf	___fladd@grs^0,c
  5840   001A1A  500F               	movf	___fladd@bexp^0,w,c
  5841   001A1C  C00E  F009         	movff	___fladd@aexp,??___fladd
  5842   001A20  6A0A               	clrf	(??___fladd+1)^0,c
  5843   001A22  5E09               	subwf	??___fladd^0,f,c
  5844   001A24  0E00               	movlw	0
  5845   001A26  5A0A               	subwfb	(??___fladd+1)^0,f,c
  5846   001A28  BE0A               	btfsc	(??___fladd+1)^0,7,c
  5847   001A2A  EF20  F00D         	goto	u2271
  5848   001A2E  500A               	movf	(??___fladd+1)^0,w,c
  5849   001A30  E109               	bnz	u2270
  5850   001A32  0E1A               	movlw	26
  5851   001A34  5C09               	subwf	??___fladd^0,w,c
  5852   001A36  A0D8               	btfss	status,0,c
  5853   001A38  EF20  F00D         	goto	u2271
  5854   001A3C  EF22  F00D         	goto	u2270
  5855   001A40                     u2271:
  5856   001A40  EF59  F00D         	goto	l858
  5857   001A44                     u2270:
  5858   001A44  5001               	movf	___fladd@b^0,w,c
  5859   001A46  1002               	iorwf	(___fladd@b+1)^0,w,c
  5860   001A48  1003               	iorwf	(___fladd@b+2)^0,w,c
  5861   001A4A  1004               	iorwf	(___fladd@b+3)^0,w,c
  5862   001A4C  A4D8               	btfss	status,2,c
  5863   001A4E  EF2B  F00D         	goto	u2281
  5864   001A52  EF2E  F00D         	goto	u2280
  5865   001A56                     u2281:
  5866   001A56  0E01               	movlw	1
  5867   001A58  EF2F  F00D         	goto	u2290
  5868   001A5C                     u2280:
  5869   001A5C  0E00               	movlw	0
  5870   001A5E                     u2290:
  5871   001A5E  6E10               	movwf	___fladd@grs^0,c
  5872   001A60  0E00               	movlw	0
  5873   001A62  6E01               	movwf	___fladd@b^0,c
  5874   001A64  0E00               	movlw	0
  5875   001A66  6E02               	movwf	(___fladd@b+1)^0,c
  5876   001A68  0E00               	movlw	0
  5877   001A6A  6E03               	movwf	(___fladd@b+2)^0,c
  5878   001A6C  0E00               	movlw	0
  5879   001A6E  6E04               	movwf	(___fladd@b+3)^0,c
  5880   001A70  C00E  F00F         	movff	___fladd@aexp,___fladd@bexp
  5881   001A74  EF62  F00D         	goto	l857
  5882   001A78                     l859:
  5883   001A78  A010               	btfss	___fladd@grs^0,0,c
  5884   001A7A  EF41  F00D         	goto	u2301
  5885   001A7E  EF43  F00D         	goto	u2300
  5886   001A82                     u2301:
  5887   001A82  EF49  F00D         	goto	l2585
  5888   001A86                     u2300:
  5889   001A86  90D8               	bcf	status,0,c
  5890   001A88  3010               	rrcf	___fladd@grs^0,w,c
  5891   001A8A  0901               	iorlw	1
  5892   001A8C  6E10               	movwf	___fladd@grs^0,c
  5893   001A8E  EF4B  F00D         	goto	l2587
  5894   001A92                     l2585:
  5895   001A92  90D8               	bcf	status,0,c
  5896   001A94  3210               	rrcf	___fladd@grs^0,f,c
  5897   001A96                     l2587:
  5898   001A96  A001               	btfss	___fladd@b^0,0,c
  5899   001A98  EF50  F00D         	goto	u2311
  5900   001A9C  EF52  F00D         	goto	u2310
  5901   001AA0                     u2311:
  5902   001AA0  EF53  F00D         	goto	l2591
  5903   001AA4                     u2310:
  5904   001AA4  8E10               	bsf	___fladd@grs^0,7,c
  5905   001AA6                     l2591:
  5906   001AA6  3404               	rlcf	(___fladd@b+3)^0,w,c
  5907   001AA8  3204               	rrcf	(___fladd@b+3)^0,f,c
  5908   001AAA  3203               	rrcf	(___fladd@b+2)^0,f,c
  5909   001AAC  3202               	rrcf	(___fladd@b+1)^0,f,c
  5910   001AAE  3201               	rrcf	___fladd@b^0,f,c
  5911   001AB0  2A0F               	incf	___fladd@bexp^0,f,c
  5912   001AB2                     l858:
  5913   001AB2  500E               	movf	___fladd@aexp^0,w,c
  5914   001AB4  5C0F               	subwf	___fladd@bexp^0,w,c
  5915   001AB6  A0D8               	btfss	status,0,c
  5916   001AB8  EF60  F00D         	goto	u2321
  5917   001ABC  EF62  F00D         	goto	u2320
  5918   001AC0                     u2321:
  5919   001AC0  EF3C  F00D         	goto	l859
  5920   001AC4                     u2320:
  5921   001AC4                     l857:
  5922   001AC4  BC0D               	btfsc	___fladd@signs^0,6,c
  5923   001AC6  EF67  F00D         	goto	u2331
  5924   001ACA  EF69  F00D         	goto	u2330
  5925   001ACE                     u2331:
  5926   001ACE  EFA9  F00D         	goto	l2619
  5927   001AD2                     u2330:
  5928   001AD2  500F               	movf	___fladd@bexp^0,w,c
  5929   001AD4  A4D8               	btfss	status,2,c
  5930   001AD6  EF6F  F00D         	goto	u2341
  5931   001ADA  EF71  F00D         	goto	u2340
  5932   001ADE                     u2341:
  5933   001ADE  EF7B  F00D         	goto	l2601
  5934   001AE2                     u2340:
  5935   001AE2  0E00               	movlw	0
  5936   001AE4  6E01               	movwf	?___fladd^0,c
  5937   001AE6  0E00               	movlw	0
  5938   001AE8  6E02               	movwf	(?___fladd+1)^0,c
  5939   001AEA  0E00               	movlw	0
  5940   001AEC  6E03               	movwf	(?___fladd+2)^0,c
  5941   001AEE  0E00               	movlw	0
  5942   001AF0  6E04               	movwf	(?___fladd+3)^0,c
  5943   001AF2  EFCA  F00E         	goto	l866
  5944   001AF6                     l2601:
  5945   001AF6  5005               	movf	___fladd@a^0,w,c
  5946   001AF8  2601               	addwf	___fladd@b^0,f,c
  5947   001AFA  5006               	movf	(___fladd@a+1)^0,w,c
  5948   001AFC  2202               	addwfc	(___fladd@b+1)^0,f,c
  5949   001AFE  5007               	movf	(___fladd@a+2)^0,w,c
  5950   001B00  2203               	addwfc	(___fladd@b+2)^0,f,c
  5951   001B02  5008               	movf	(___fladd@a+3)^0,w,c
  5952   001B04  2204               	addwfc	(___fladd@b+3)^0,f,c
  5953   001B06  A004               	btfss	(___fladd@b+3)^0,0,c
  5954   001B08  EF88  F00D         	goto	u2351
  5955   001B0C  EF8A  F00D         	goto	u2350
  5956   001B10                     u2351:
  5957   001B10  EF36  F00E         	goto	l2655
  5958   001B14                     u2350:
  5959   001B14  A010               	btfss	___fladd@grs^0,0,c
  5960   001B16  EF8F  F00D         	goto	u2361
  5961   001B1A  EF91  F00D         	goto	u2360
  5962   001B1E                     u2361:
  5963   001B1E  EF97  F00D         	goto	l2609
  5964   001B22                     u2360:
  5965   001B22  90D8               	bcf	status,0,c
  5966   001B24  3010               	rrcf	___fladd@grs^0,w,c
  5967   001B26  0901               	iorlw	1
  5968   001B28  6E10               	movwf	___fladd@grs^0,c
  5969   001B2A  EF99  F00D         	goto	l2611
  5970   001B2E                     l2609:
  5971   001B2E  90D8               	bcf	status,0,c
  5972   001B30  3210               	rrcf	___fladd@grs^0,f,c
  5973   001B32                     l2611:
  5974   001B32  A001               	btfss	___fladd@b^0,0,c
  5975   001B34  EF9E  F00D         	goto	u2371
  5976   001B38  EFA0  F00D         	goto	u2370
  5977   001B3C                     u2371:
  5978   001B3C  EFA1  F00D         	goto	l2615
  5979   001B40                     u2370:
  5980   001B40  8E10               	bsf	___fladd@grs^0,7,c
  5981   001B42                     l2615:
  5982   001B42  3404               	rlcf	(___fladd@b+3)^0,w,c
  5983   001B44  3204               	rrcf	(___fladd@b+3)^0,f,c
  5984   001B46  3203               	rrcf	(___fladd@b+2)^0,f,c
  5985   001B48  3202               	rrcf	(___fladd@b+1)^0,f,c
  5986   001B4A  3201               	rrcf	___fladd@b^0,f,c
  5987   001B4C  2A0F               	incf	___fladd@bexp^0,f,c
  5988   001B4E  EF36  F00E         	goto	l2655
  5989   001B52                     l2619:
  5990   001B52  5005               	movf	___fladd@a^0,w,c
  5991   001B54  5C01               	subwf	___fladd@b^0,w,c
  5992   001B56  5006               	movf	(___fladd@a+1)^0,w,c
  5993   001B58  5802               	subwfb	(___fladd@b+1)^0,w,c
  5994   001B5A  5007               	movf	(___fladd@a+2)^0,w,c
  5995   001B5C  5803               	subwfb	(___fladd@b+2)^0,w,c
  5996   001B5E  5004               	movf	(___fladd@b+3)^0,w,c
  5997   001B60  0A80               	xorlw	128
  5998   001B62  6E09               	movwf	??___fladd^0,c
  5999   001B64  5008               	movf	(___fladd@a+3)^0,w,c
  6000   001B66  0A80               	xorlw	128
  6001   001B68  5809               	subwfb	??___fladd^0,w,c
  6002   001B6A  B0D8               	btfsc	status,0,c
  6003   001B6C  EFBA  F00D         	goto	u2381
  6004   001B70  EFBC  F00D         	goto	u2380
  6005   001B74                     u2381:
  6006   001B74  EFE7  F00D         	goto	l2629
  6007   001B78                     u2380:
  6008   001B78  5001               	movf	___fladd@b^0,w,c
  6009   001B7A  5C05               	subwf	___fladd@a^0,w,c
  6010   001B7C  6E09               	movwf	??___fladd^0,c
  6011   001B7E  5002               	movf	(___fladd@b+1)^0,w,c
  6012   001B80  5806               	subwfb	(___fladd@a+1)^0,w,c
  6013   001B82  6E0A               	movwf	(??___fladd+1)^0,c
  6014   001B84  5003               	movf	(___fladd@b+2)^0,w,c
  6015   001B86  5807               	subwfb	(___fladd@a+2)^0,w,c
  6016   001B88  6E0B               	movwf	(??___fladd+2)^0,c
  6017   001B8A  5004               	movf	(___fladd@b+3)^0,w,c
  6018   001B8C  5808               	subwfb	(___fladd@a+3)^0,w,c
  6019   001B8E  6E0C               	movwf	(??___fladd+3)^0,c
  6020   001B90  0EFF               	movlw	255
  6021   001B92  2409               	addwf	??___fladd^0,w,c
  6022   001B94  6E01               	movwf	___fladd@b^0,c
  6023   001B96  0EFF               	movlw	255
  6024   001B98  200A               	addwfc	(??___fladd+1)^0,w,c
  6025   001B9A  6E02               	movwf	(___fladd@b+1)^0,c
  6026   001B9C  0EFF               	movlw	255
  6027   001B9E  200B               	addwfc	(??___fladd+2)^0,w,c
  6028   001BA0  6E03               	movwf	(___fladd@b+2)^0,c
  6029   001BA2  0EFF               	movlw	255
  6030   001BA4  200C               	addwfc	(??___fladd+3)^0,w,c
  6031   001BA6  6E04               	movwf	(___fladd@b+3)^0,c
  6032   001BA8  0E80               	movlw	128
  6033   001BAA  1A0D               	xorwf	___fladd@signs^0,f,c
  6034   001BAC  6C10               	negf	___fladd@grs^0,c
  6035   001BAE  5010               	movf	___fladd@grs^0,w,c
  6036   001BB0  A4D8               	btfss	status,2,c
  6037   001BB2  EFDD  F00D         	goto	u2391
  6038   001BB6  EFDF  F00D         	goto	u2390
  6039   001BBA                     u2391:
  6040   001BBA  EFEF  F00D         	goto	l874
  6041   001BBE                     u2390:
  6042   001BBE  0E01               	movlw	1
  6043   001BC0  2601               	addwf	___fladd@b^0,f,c
  6044   001BC2  0E00               	movlw	0
  6045   001BC4  2202               	addwfc	(___fladd@b+1)^0,f,c
  6046   001BC6  2203               	addwfc	(___fladd@b+2)^0,f,c
  6047   001BC8  2204               	addwfc	(___fladd@b+3)^0,f,c
  6048   001BCA  EFEF  F00D         	goto	l874
  6049   001BCE                     l2629:
  6050   001BCE  5005               	movf	___fladd@a^0,w,c
  6051   001BD0  5E01               	subwf	___fladd@b^0,f,c
  6052   001BD2  5006               	movf	(___fladd@a+1)^0,w,c
  6053   001BD4  5A02               	subwfb	(___fladd@b+1)^0,f,c
  6054   001BD6  5007               	movf	(___fladd@a+2)^0,w,c
  6055   001BD8  5A03               	subwfb	(___fladd@b+2)^0,f,c
  6056   001BDA  5008               	movf	(___fladd@a+3)^0,w,c
  6057   001BDC  5A04               	subwfb	(___fladd@b+3)^0,f,c
  6058   001BDE                     l874:
  6059   001BDE  5001               	movf	___fladd@b^0,w,c
  6060   001BE0  1002               	iorwf	(___fladd@b+1)^0,w,c
  6061   001BE2  1003               	iorwf	(___fladd@b+2)^0,w,c
  6062   001BE4  1004               	iorwf	(___fladd@b+3)^0,w,c
  6063   001BE6  A4D8               	btfss	status,2,c
  6064   001BE8  EFF8  F00D         	goto	u2401
  6065   001BEC  EFFA  F00D         	goto	u2400
  6066   001BF0                     u2401:
  6067   001BF0  EF2F  F00E         	goto	l2653
  6068   001BF4                     u2400:
  6069   001BF4  5010               	movf	___fladd@grs^0,w,c
  6070   001BF6  A4D8               	btfss	status,2,c
  6071   001BF8  EF00  F00E         	goto	u2411
  6072   001BFC  EF02  F00E         	goto	u2410
  6073   001C00                     u2411:
  6074   001C00  EF2F  F00E         	goto	l2653
  6075   001C04                     u2410:
  6076   001C04  0E00               	movlw	0
  6077   001C06  6E01               	movwf	?___fladd^0,c
  6078   001C08  0E00               	movlw	0
  6079   001C0A  6E02               	movwf	(?___fladd+1)^0,c
  6080   001C0C  0E00               	movlw	0
  6081   001C0E  6E03               	movwf	(?___fladd+2)^0,c
  6082   001C10  0E00               	movlw	0
  6083   001C12  6E04               	movwf	(?___fladd+3)^0,c
  6084   001C14  EFCA  F00E         	goto	l866
  6085   001C18                     l2637:
  6086   001C18  90D8               	bcf	status,0,c
  6087   001C1A  3601               	rlcf	___fladd@b^0,f,c
  6088   001C1C  3602               	rlcf	(___fladd@b+1)^0,f,c
  6089   001C1E  3603               	rlcf	(___fladd@b+2)^0,f,c
  6090   001C20  3604               	rlcf	(___fladd@b+3)^0,f,c
  6091   001C22  AE10               	btfss	___fladd@grs^0,7,c
  6092   001C24  EF16  F00E         	goto	u2421
  6093   001C28  EF18  F00E         	goto	u2420
  6094   001C2C                     u2421:
  6095   001C2C  EF19  F00E         	goto	l2643
  6096   001C30                     u2420:
  6097   001C30  8001               	bsf	___fladd@b^0,0,c
  6098   001C32                     l2643:
  6099   001C32  A010               	btfss	___fladd@grs^0,0,c
  6100   001C34  EF1E  F00E         	goto	u2431
  6101   001C38  EF20  F00E         	goto	u2430
  6102   001C3C                     u2431:
  6103   001C3C  EF24  F00E         	goto	l2647
  6104   001C40                     u2430:
  6105   001C40  80D8               	bsf	status,0,c
  6106   001C42  3610               	rlcf	___fladd@grs^0,f,c
  6107   001C44  EF26  F00E         	goto	l2649
  6108   001C48                     l2647:
  6109   001C48  90D8               	bcf	status,0,c
  6110   001C4A  3610               	rlcf	___fladd@grs^0,f,c
  6111   001C4C                     l2649:
  6112   001C4C  500F               	movf	___fladd@bexp^0,w,c
  6113   001C4E  B4D8               	btfsc	status,2,c
  6114   001C50  EF2C  F00E         	goto	u2441
  6115   001C54  EF2E  F00E         	goto	u2440
  6116   001C58                     u2441:
  6117   001C58  EF2F  F00E         	goto	l2653
  6118   001C5C                     u2440:
  6119   001C5C  060F               	decf	___fladd@bexp^0,f,c
  6120   001C5E                     l2653:
  6121   001C5E  AE03               	btfss	(___fladd@b+2)^0,7,c
  6122   001C60  EF34  F00E         	goto	u2451
  6123   001C64  EF36  F00E         	goto	u2450
  6124   001C68                     u2451:
  6125   001C68  EF0C  F00E         	goto	l2637
  6126   001C6C                     u2450:
  6127   001C6C                     l2655:
  6128   001C6C  0E00               	movlw	0
  6129   001C6E  6E0E               	movwf	___fladd@aexp^0,c
  6130   001C70  AE10               	btfss	___fladd@grs^0,7,c
  6131   001C72  EF3D  F00E         	goto	u2461
  6132   001C76  EF3F  F00E         	goto	u2460
  6133   001C7A                     u2461:
  6134   001C7A  EF57  F00E         	goto	l883
  6135   001C7E                     u2460:
  6136   001C7E  C010  F009         	movff	___fladd@grs,??___fladd
  6137   001C82  0E7F               	movlw	127
  6138   001C84  1609               	andwf	??___fladd^0,f,c
  6139   001C86  B4D8               	btfsc	status,2,c
  6140   001C88  EF48  F00E         	goto	u2471
  6141   001C8C  EF4A  F00E         	goto	u2470
  6142   001C90                     u2471:
  6143   001C90  EF4E  F00E         	goto	l884
  6144   001C94                     u2470:
  6145   001C94                     l2661:
  6146   001C94  0E01               	movlw	1
  6147   001C96  6E0E               	movwf	___fladd@aexp^0,c
  6148   001C98  EF57  F00E         	goto	l883
  6149   001C9C                     l884:
  6150   001C9C  A001               	btfss	___fladd@b^0,0,c
  6151   001C9E  EF53  F00E         	goto	u2481
  6152   001CA2  EF55  F00E         	goto	u2480
  6153   001CA6                     u2481:
  6154   001CA6  EF57  F00E         	goto	l883
  6155   001CAA                     u2480:
  6156   001CAA  EF4A  F00E         	goto	l2661
  6157   001CAE                     l883:
  6158   001CAE  500E               	movf	___fladd@aexp^0,w,c
  6159   001CB0  B4D8               	btfsc	status,2,c
  6160   001CB2  EF5D  F00E         	goto	u2491
  6161   001CB6  EF5F  F00E         	goto	u2490
  6162   001CBA                     u2491:
  6163   001CBA  EF8A  F00E         	goto	l2673
  6164   001CBE                     u2490:
  6165   001CBE  0E01               	movlw	1
  6166   001CC0  2601               	addwf	___fladd@b^0,f,c
  6167   001CC2  0E00               	movlw	0
  6168   001CC4  2202               	addwfc	(___fladd@b+1)^0,f,c
  6169   001CC6  2203               	addwfc	(___fladd@b+2)^0,f,c
  6170   001CC8  2204               	addwfc	(___fladd@b+3)^0,f,c
  6171   001CCA  A004               	btfss	(___fladd@b+3)^0,0,c
  6172   001CCC  EF6A  F00E         	goto	u2501
  6173   001CD0  EF6C  F00E         	goto	u2500
  6174   001CD4                     u2501:
  6175   001CD4  EF8A  F00E         	goto	l2673
  6176   001CD8                     u2500:
  6177   001CD8  C001  F009         	movff	___fladd@b,??___fladd
  6178   001CDC  C002  F00A         	movff	___fladd@b+1,??___fladd+1
  6179   001CE0  C003  F00B         	movff	___fladd@b+2,??___fladd+2
  6180   001CE4  C004  F00C         	movff	___fladd@b+3,??___fladd+3
  6181   001CE8  340C               	rlcf	(??___fladd+3)^0,w,c
  6182   001CEA  320C               	rrcf	(??___fladd+3)^0,f,c
  6183   001CEC  320B               	rrcf	(??___fladd+2)^0,f,c
  6184   001CEE  320A               	rrcf	(??___fladd+1)^0,f,c
  6185   001CF0  3209               	rrcf	??___fladd^0,f,c
  6186   001CF2  C009  F001         	movff	??___fladd,___fladd@b
  6187   001CF6  C00A  F002         	movff	??___fladd+1,___fladd@b+1
  6188   001CFA  C00B  F003         	movff	??___fladd+2,___fladd@b+2
  6189   001CFE  C00C  F004         	movff	??___fladd+3,___fladd@b+3
  6190   001D02  280F               	incf	___fladd@bexp^0,w,c
  6191   001D04  B4D8               	btfsc	status,2,c
  6192   001D06  EF87  F00E         	goto	u2511
  6193   001D0A  EF89  F00E         	goto	u2510
  6194   001D0E                     u2511:
  6195   001D0E  EF8A  F00E         	goto	l2673
  6196   001D12                     u2510:
  6197   001D12  2A0F               	incf	___fladd@bexp^0,f,c
  6198   001D14                     l2673:
  6199   001D14  280F               	incf	___fladd@bexp^0,w,c
  6200   001D16  B4D8               	btfsc	status,2,c
  6201   001D18  EF90  F00E         	goto	u2521
  6202   001D1C  EF92  F00E         	goto	u2520
  6203   001D20                     u2521:
  6204   001D20  EF9A  F00E         	goto	l2677
  6205   001D24                     u2520:
  6206   001D24  500F               	movf	___fladd@bexp^0,w,c
  6207   001D26  A4D8               	btfss	status,2,c
  6208   001D28  EF98  F00E         	goto	u2531
  6209   001D2C  EF9A  F00E         	goto	u2530
  6210   001D30                     u2531:
  6211   001D30  EFAC  F00E         	goto	l2681
  6212   001D34                     u2530:
  6213   001D34                     l2677:
  6214   001D34  0E00               	movlw	0
  6215   001D36  6E01               	movwf	___fladd@b^0,c
  6216   001D38  0E00               	movlw	0
  6217   001D3A  6E02               	movwf	(___fladd@b+1)^0,c
  6218   001D3C  0E00               	movlw	0
  6219   001D3E  6E03               	movwf	(___fladd@b+2)^0,c
  6220   001D40  0E00               	movlw	0
  6221   001D42  6E04               	movwf	(___fladd@b+3)^0,c
  6222   001D44  500F               	movf	___fladd@bexp^0,w,c
  6223   001D46  A4D8               	btfss	status,2,c
  6224   001D48  EFA8  F00E         	goto	u2541
  6225   001D4C  EFAA  F00E         	goto	u2540
  6226   001D50                     u2541:
  6227   001D50  EFAC  F00E         	goto	l2681
  6228   001D54                     u2540:
  6229   001D54  0E00               	movlw	0
  6230   001D56  6E0D               	movwf	___fladd@signs^0,c
  6231   001D58                     l2681:
  6232   001D58  A00F               	btfss	___fladd@bexp^0,0,c
  6233   001D5A  EFB1  F00E         	goto	u2551
  6234   001D5E  EFB3  F00E         	goto	u2550
  6235   001D62                     u2551:
  6236   001D62  EFB6  F00E         	goto	l2685
  6237   001D66                     u2550:
  6238   001D66  8E03               	bsf	(___fladd@b+2)^0,7,c
  6239   001D68  EFB7  F00E         	goto	l2687
  6240   001D6C                     l2685:
  6241   001D6C  9E03               	bcf	(___fladd@b+2)^0,7,c
  6242   001D6E                     l2687:
  6243   001D6E  90D8               	bcf	status,0,c
  6244   001D70  300F               	rrcf	___fladd@bexp^0,w,c
  6245   001D72  6E04               	movwf	(___fladd@b+3)^0,c
  6246   001D74  AE0D               	btfss	___fladd@signs^0,7,c
  6247   001D76  EFBF  F00E         	goto	u2561
  6248   001D7A  EFC1  F00E         	goto	u2560
  6249   001D7E                     u2561:
  6250   001D7E  EFC2  F00E         	goto	l2693
  6251   001D82                     u2560:
  6252   001D82  8E04               	bsf	(___fladd@b+3)^0,7,c
  6253   001D84                     l2693:
  6254   001D84  C001  F001         	movff	___fladd@b,?___fladd
  6255   001D88  C002  F002         	movff	___fladd@b+1,?___fladd+1
  6256   001D8C  C003  F003         	movff	___fladd@b+2,?___fladd+2
  6257   001D90  C004  F004         	movff	___fladd@b+3,?___fladd+3
  6258   001D94                     l866:
  6259   001D94  0012               	return		;funcret
  6260   001D96                     __end_of___fladd:
  6261                           	callstack 0
  6262                           
  6263 ;; *************** function ___flmul *****************
  6264 ;; Defined at:
  6265 ;;		line 8 in file "C:\Program Files\Microchip\xc8\v2.40\pic\sources\c99\common\sprcmul.c"
  6266 ;; Parameters:    Size  Location     Type
  6267 ;;  b               4   49[COMRAM] unsigned char 
  6268 ;;  a               4   53[COMRAM] unsigned char 
  6269 ;; Auto vars:     Size  Location     Type
  6270 ;;  prod            4   68[COMRAM] struct .
  6271 ;;  grs             4   62[COMRAM] unsigned long 
  6272 ;;  temp            2   72[COMRAM] struct .
  6273 ;;  bexp            1   67[COMRAM] unsigned char 
  6274 ;;  aexp            1   66[COMRAM] unsigned char 
  6275 ;;  sign            1   61[COMRAM] unsigned char 
  6276 ;; Return value:  Size  Location     Type
  6277 ;;                  4   49[COMRAM] unsigned char 
  6278 ;; Registers used:
  6279 ;;		wreg, status,2, status,0, prodl, prodh
  6280 ;; Tracked objects:
  6281 ;;		On entry : 0/0
  6282 ;;		On exit  : 0/0
  6283 ;;		Unchanged: 0/0
  6284 ;; Data sizes:     COMRAM   BANK0   BANK1   BANK2   BANK3   BANK4   BANK5   BANK6   BANK7   BANK8   BANK9  BANK10  BANK1
      +1  BANK12  BANK13
  6285 ;;      Params:         8       0       0       0       0       0       0       0       0       0       0       0       
      +0       0       0
  6286 ;;      Locals:        13       0       0       0       0       0       0       0       0       0       0       0       
      +0       0       0
  6287 ;;      Temps:          4       0       0       0       0       0       0       0       0       0       0       0       
      +0       0       0
  6288 ;;      Totals:        25       0       0       0       0       0       0       0       0       0       0       0       
      +0       0       0
  6289 ;;Total ram usage:       25 bytes
  6290 ;; Hardware stack levels used: 1
  6291 ;; Hardware stack levels required when called: 1
  6292 ;; This function calls:
  6293 ;;		Nothing
  6294 ;; This function is called by:
  6295 ;;		_Colour_decider
  6296 ;; This function uses a non-reentrant model
  6297 ;;
  6298                           
  6299                           	psect	text35
  6300   001D96                     __ptext35:
  6301                           	callstack 0
  6302   001D96                     ___flmul:
  6303                           	callstack 28
  6304   001D96  5035               	movf	(___flmul@b+3)^0,w,c
  6305   001D98  0B80               	andlw	128
  6306   001D9A  6E3E               	movwf	___flmul@sign^0,c
  6307   001D9C  5035               	movf	(___flmul@b+3)^0,w,c
  6308   001D9E  2435               	addwf	(___flmul@b+3)^0,w,c
  6309   001DA0  6E44               	movwf	___flmul@bexp^0,c
  6310   001DA2  AE34               	btfss	(___flmul@b+2)^0,7,c
  6311   001DA4  EFD6  F00E         	goto	u2841
  6312   001DA8  EFD8  F00E         	goto	u2840
  6313   001DAC                     u2841:
  6314   001DAC  EFD9  F00E         	goto	l2913
  6315   001DB0                     u2840:
  6316   001DB0  8044               	bsf	___flmul@bexp^0,0,c
  6317   001DB2                     l2913:
  6318   001DB2  5044               	movf	___flmul@bexp^0,w,c
  6319   001DB4  B4D8               	btfsc	status,2,c
  6320   001DB6  EFDF  F00E         	goto	u2851
  6321   001DBA  EFE1  F00E         	goto	u2850
  6322   001DBE                     u2851:
  6323   001DBE  EFF4  F00E         	goto	l2921
  6324   001DC2                     u2850:
  6325   001DC2  2844               	incf	___flmul@bexp^0,w,c
  6326   001DC4  A4D8               	btfss	status,2,c
  6327   001DC6  EFE7  F00E         	goto	u2861
  6328   001DCA  EFE9  F00E         	goto	u2860
  6329   001DCE                     u2861:
  6330   001DCE  EFF1  F00E         	goto	l2919
  6331   001DD2                     u2860:
  6332   001DD2  0E00               	movlw	0
  6333   001DD4  6E32               	movwf	___flmul@b^0,c
  6334   001DD6  0E00               	movlw	0
  6335   001DD8  6E33               	movwf	(___flmul@b+1)^0,c
  6336   001DDA  0E00               	movlw	0
  6337   001DDC  6E34               	movwf	(___flmul@b+2)^0,c
  6338   001DDE  0E00               	movlw	0
  6339   001DE0  6E35               	movwf	(___flmul@b+3)^0,c
  6340   001DE2                     l2919:
  6341   001DE2  8E34               	bsf	(___flmul@b+2)^0,7,c
  6342   001DE4  EFFC  F00E         	goto	l2923
  6343   001DE8                     l2921:
  6344   001DE8  0E00               	movlw	0
  6345   001DEA  6E32               	movwf	___flmul@b^0,c
  6346   001DEC  0E00               	movlw	0
  6347   001DEE  6E33               	movwf	(___flmul@b+1)^0,c
  6348   001DF0  0E00               	movlw	0
  6349   001DF2  6E34               	movwf	(___flmul@b+2)^0,c
  6350   001DF4  0E00               	movlw	0
  6351   001DF6  6E35               	movwf	(___flmul@b+3)^0,c
  6352   001DF8                     l2923:
  6353   001DF8  5039               	movf	(___flmul@a+3)^0,w,c
  6354   001DFA  0B80               	andlw	128
  6355   001DFC  1A3E               	xorwf	___flmul@sign^0,f,c
  6356   001DFE  5039               	movf	(___flmul@a+3)^0,w,c
  6357   001E00  2439               	addwf	(___flmul@a+3)^0,w,c
  6358   001E02  6E43               	movwf	___flmul@aexp^0,c
  6359   001E04  AE38               	btfss	(___flmul@a+2)^0,7,c
  6360   001E06  EF07  F00F         	goto	u2871
  6361   001E0A  EF09  F00F         	goto	u2870
  6362   001E0E                     u2871:
  6363   001E0E  EF0A  F00F         	goto	l2931
  6364   001E12                     u2870:
  6365   001E12  8043               	bsf	___flmul@aexp^0,0,c
  6366   001E14                     l2931:
  6367   001E14  5043               	movf	___flmul@aexp^0,w,c
  6368   001E16  B4D8               	btfsc	status,2,c
  6369   001E18  EF10  F00F         	goto	u2881
  6370   001E1C  EF12  F00F         	goto	u2880
  6371   001E20                     u2881:
  6372   001E20  EF25  F00F         	goto	l2939
  6373   001E24                     u2880:
  6374   001E24  2843               	incf	___flmul@aexp^0,w,c
  6375   001E26  A4D8               	btfss	status,2,c
  6376   001E28  EF18  F00F         	goto	u2891
  6377   001E2C  EF1A  F00F         	goto	u2890
  6378   001E30                     u2891:
  6379   001E30  EF22  F00F         	goto	l2937
  6380   001E34                     u2890:
  6381   001E34  0E00               	movlw	0
  6382   001E36  6E36               	movwf	___flmul@a^0,c
  6383   001E38  0E00               	movlw	0
  6384   001E3A  6E37               	movwf	(___flmul@a+1)^0,c
  6385   001E3C  0E00               	movlw	0
  6386   001E3E  6E38               	movwf	(___flmul@a+2)^0,c
  6387   001E40  0E00               	movlw	0
  6388   001E42  6E39               	movwf	(___flmul@a+3)^0,c
  6389   001E44                     l2937:
  6390   001E44  8E38               	bsf	(___flmul@a+2)^0,7,c
  6391   001E46  EF2D  F00F         	goto	l943
  6392   001E4A                     l2939:
  6393   001E4A  0E00               	movlw	0
  6394   001E4C  6E36               	movwf	___flmul@a^0,c
  6395   001E4E  0E00               	movlw	0
  6396   001E50  6E37               	movwf	(___flmul@a+1)^0,c
  6397   001E52  0E00               	movlw	0
  6398   001E54  6E38               	movwf	(___flmul@a+2)^0,c
  6399   001E56  0E00               	movlw	0
  6400   001E58  6E39               	movwf	(___flmul@a+3)^0,c
  6401   001E5A                     l943:
  6402   001E5A  5043               	movf	___flmul@aexp^0,w,c
  6403   001E5C  B4D8               	btfsc	status,2,c
  6404   001E5E  EF33  F00F         	goto	u2901
  6405   001E62  EF35  F00F         	goto	u2900
  6406   001E66                     u2901:
  6407   001E66  EF3D  F00F         	goto	l2943
  6408   001E6A                     u2900:
  6409   001E6A  5044               	movf	___flmul@bexp^0,w,c
  6410   001E6C  A4D8               	btfss	status,2,c
  6411   001E6E  EF3B  F00F         	goto	u2911
  6412   001E72  EF3D  F00F         	goto	u2910
  6413   001E76                     u2911:
  6414   001E76  EF47  F00F         	goto	l2947
  6415   001E7A                     u2910:
  6416   001E7A                     l2943:
  6417   001E7A  0E00               	movlw	0
  6418   001E7C  6E32               	movwf	?___flmul^0,c
  6419   001E7E  0E00               	movlw	0
  6420   001E80  6E33               	movwf	(?___flmul+1)^0,c
  6421   001E82  0E00               	movlw	0
  6422   001E84  6E34               	movwf	(?___flmul+2)^0,c
  6423   001E86  0E00               	movlw	0
  6424   001E88  6E35               	movwf	(?___flmul+3)^0,c
  6425   001E8A  EFDF  F010         	goto	l947
  6426   001E8E                     l2947:
  6427   001E8E  5038               	movf	(___flmul@a+2)^0,w,c
  6428   001E90  0232               	mulwf	___flmul@b^0,c
  6429   001E92  CFF3 F049          	movff	prodl,___flmul@temp
  6430   001E96  CFF4 F04A          	movff	prodh,___flmul@temp+1
  6431   001E9A  5049               	movf	___flmul@temp^0,w,c
  6432   001E9C  6E3F               	movwf	___flmul@grs^0,c
  6433   001E9E  6A40               	clrf	(___flmul@grs+1)^0,c
  6434   001EA0  6A41               	clrf	(___flmul@grs+2)^0,c
  6435   001EA2  6A42               	clrf	(___flmul@grs+3)^0,c
  6436   001EA4  504A               	movf	(___flmul@temp+1)^0,w,c
  6437   001EA6  6E45               	movwf	___flmul@prod^0,c
  6438   001EA8  6A46               	clrf	(___flmul@prod+1)^0,c
  6439   001EAA  6A47               	clrf	(___flmul@prod+2)^0,c
  6440   001EAC  6A48               	clrf	(___flmul@prod+3)^0,c
  6441   001EAE  5037               	movf	(___flmul@a+1)^0,w,c
  6442   001EB0  0233               	mulwf	(___flmul@b+1)^0,c
  6443   001EB2  CFF3 F049          	movff	prodl,___flmul@temp
  6444   001EB6  CFF4 F04A          	movff	prodh,___flmul@temp+1
  6445   001EBA  5049               	movf	___flmul@temp^0,w,c
  6446   001EBC  263F               	addwf	___flmul@grs^0,f,c
  6447   001EBE  0E00               	movlw	0
  6448   001EC0  2240               	addwfc	(___flmul@grs+1)^0,f,c
  6449   001EC2  2241               	addwfc	(___flmul@grs+2)^0,f,c
  6450   001EC4  2242               	addwfc	(___flmul@grs+3)^0,f,c
  6451   001EC6  504A               	movf	(___flmul@temp+1)^0,w,c
  6452   001EC8  2645               	addwf	___flmul@prod^0,f,c
  6453   001ECA  0E00               	movlw	0
  6454   001ECC  2246               	addwfc	(___flmul@prod+1)^0,f,c
  6455   001ECE  2247               	addwfc	(___flmul@prod+2)^0,f,c
  6456   001ED0  2248               	addwfc	(___flmul@prod+3)^0,f,c
  6457   001ED2  5036               	movf	___flmul@a^0,w,c
  6458   001ED4  0234               	mulwf	(___flmul@b+2)^0,c
  6459   001ED6  CFF3 F049          	movff	prodl,___flmul@temp
  6460   001EDA  CFF4 F04A          	movff	prodh,___flmul@temp+1
  6461   001EDE  5049               	movf	___flmul@temp^0,w,c
  6462   001EE0  263F               	addwf	___flmul@grs^0,f,c
  6463   001EE2  0E00               	movlw	0
  6464   001EE4  2240               	addwfc	(___flmul@grs+1)^0,f,c
  6465   001EE6  2241               	addwfc	(___flmul@grs+2)^0,f,c
  6466   001EE8  2242               	addwfc	(___flmul@grs+3)^0,f,c
  6467   001EEA  504A               	movf	(___flmul@temp+1)^0,w,c
  6468   001EEC  2645               	addwf	___flmul@prod^0,f,c
  6469   001EEE  0E00               	movlw	0
  6470   001EF0  2246               	addwfc	(___flmul@prod+1)^0,f,c
  6471   001EF2  2247               	addwfc	(___flmul@prod+2)^0,f,c
  6472   001EF4  2248               	addwfc	(___flmul@prod+3)^0,f,c
  6473   001EF6  C041  F042         	movff	___flmul@grs+2,___flmul@grs+3
  6474   001EFA  C040  F041         	movff	___flmul@grs+1,___flmul@grs+2
  6475   001EFE  C03F  F040         	movff	___flmul@grs,___flmul@grs+1
  6476   001F02  6A3F               	clrf	___flmul@grs^0,c
  6477   001F04  5036               	movf	___flmul@a^0,w,c
  6478   001F06  0233               	mulwf	(___flmul@b+1)^0,c
  6479   001F08  CFF3 F049          	movff	prodl,___flmul@temp
  6480   001F0C  CFF4 F04A          	movff	prodh,___flmul@temp+1
  6481   001F10  5049               	movf	___flmul@temp^0,w,c
  6482   001F12  263F               	addwf	___flmul@grs^0,f,c
  6483   001F14  504A               	movf	(___flmul@temp+1)^0,w,c
  6484   001F16  2240               	addwfc	(___flmul@grs+1)^0,f,c
  6485   001F18  0E00               	movlw	0
  6486   001F1A  2241               	addwfc	(___flmul@grs+2)^0,f,c
  6487   001F1C  0E00               	movlw	0
  6488   001F1E  2242               	addwfc	(___flmul@grs+3)^0,f,c
  6489   001F20  5037               	movf	(___flmul@a+1)^0,w,c
  6490   001F22  0232               	mulwf	___flmul@b^0,c
  6491   001F24  CFF3 F049          	movff	prodl,___flmul@temp
  6492   001F28  CFF4 F04A          	movff	prodh,___flmul@temp+1
  6493   001F2C  5049               	movf	___flmul@temp^0,w,c
  6494   001F2E  263F               	addwf	___flmul@grs^0,f,c
  6495   001F30  504A               	movf	(___flmul@temp+1)^0,w,c
  6496   001F32  2240               	addwfc	(___flmul@grs+1)^0,f,c
  6497   001F34  0E00               	movlw	0
  6498   001F36  2241               	addwfc	(___flmul@grs+2)^0,f,c
  6499   001F38  0E00               	movlw	0
  6500   001F3A  2242               	addwfc	(___flmul@grs+3)^0,f,c
  6501   001F3C  C041  F042         	movff	___flmul@grs+2,___flmul@grs+3
  6502   001F40  C040  F041         	movff	___flmul@grs+1,___flmul@grs+2
  6503   001F44  C03F  F040         	movff	___flmul@grs,___flmul@grs+1
  6504   001F48  6A3F               	clrf	___flmul@grs^0,c
  6505   001F4A  5036               	movf	___flmul@a^0,w,c
  6506   001F4C  0232               	mulwf	___flmul@b^0,c
  6507   001F4E  CFF3 F049          	movff	prodl,___flmul@temp
  6508   001F52  CFF4 F04A          	movff	prodh,___flmul@temp+1
  6509   001F56  5049               	movf	___flmul@temp^0,w,c
  6510   001F58  263F               	addwf	___flmul@grs^0,f,c
  6511   001F5A  504A               	movf	(___flmul@temp+1)^0,w,c
  6512   001F5C  2240               	addwfc	(___flmul@grs+1)^0,f,c
  6513   001F5E  0E00               	movlw	0
  6514   001F60  2241               	addwfc	(___flmul@grs+2)^0,f,c
  6515   001F62  0E00               	movlw	0
  6516   001F64  2242               	addwfc	(___flmul@grs+3)^0,f,c
  6517   001F66  5038               	movf	(___flmul@a+2)^0,w,c
  6518   001F68  0233               	mulwf	(___flmul@b+1)^0,c
  6519   001F6A  CFF3 F049          	movff	prodl,___flmul@temp
  6520   001F6E  CFF4 F04A          	movff	prodh,___flmul@temp+1
  6521   001F72  5049               	movf	___flmul@temp^0,w,c
  6522   001F74  2645               	addwf	___flmul@prod^0,f,c
  6523   001F76  504A               	movf	(___flmul@temp+1)^0,w,c
  6524   001F78  2246               	addwfc	(___flmul@prod+1)^0,f,c
  6525   001F7A  0E00               	movlw	0
  6526   001F7C  2247               	addwfc	(___flmul@prod+2)^0,f,c
  6527   001F7E  0E00               	movlw	0
  6528   001F80  2248               	addwfc	(___flmul@prod+3)^0,f,c
  6529   001F82  5037               	movf	(___flmul@a+1)^0,w,c
  6530   001F84  0234               	mulwf	(___flmul@b+2)^0,c
  6531   001F86  CFF3 F049          	movff	prodl,___flmul@temp
  6532   001F8A  CFF4 F04A          	movff	prodh,___flmul@temp+1
  6533   001F8E  5049               	movf	___flmul@temp^0,w,c
  6534   001F90  2645               	addwf	___flmul@prod^0,f,c
  6535   001F92  504A               	movf	(___flmul@temp+1)^0,w,c
  6536   001F94  2246               	addwfc	(___flmul@prod+1)^0,f,c
  6537   001F96  0E00               	movlw	0
  6538   001F98  2247               	addwfc	(___flmul@prod+2)^0,f,c
  6539   001F9A  0E00               	movlw	0
  6540   001F9C  2248               	addwfc	(___flmul@prod+3)^0,f,c
  6541   001F9E  5038               	movf	(___flmul@a+2)^0,w,c
  6542   001FA0  0234               	mulwf	(___flmul@b+2)^0,c
  6543   001FA2  CFF3 F049          	movff	prodl,___flmul@temp
  6544   001FA6  CFF4 F04A          	movff	prodh,___flmul@temp+1
  6545   001FAA  5049               	movf	___flmul@temp^0,w,c
  6546   001FAC  6E3A               	movwf	??___flmul^0,c
  6547   001FAE  504A               	movf	(___flmul@temp+1)^0,w,c
  6548   001FB0  6E3B               	movwf	(??___flmul+1)^0,c
  6549   001FB2  6A3C               	clrf	(??___flmul+2)^0,c
  6550   001FB4  6A3D               	clrf	(??___flmul+3)^0,c
  6551   001FB6  C03C  F03D         	movff	??___flmul+2,??___flmul+3
  6552   001FBA  C03B  F03C         	movff	??___flmul+1,??___flmul+2
  6553   001FBE  C03A  F03B         	movff	??___flmul,??___flmul+1
  6554   001FC2  6A3A               	clrf	??___flmul^0,c
  6555   001FC4  503A               	movf	??___flmul^0,w,c
  6556   001FC6  2645               	addwf	___flmul@prod^0,f,c
  6557   001FC8  503B               	movf	(??___flmul+1)^0,w,c
  6558   001FCA  2246               	addwfc	(___flmul@prod+1)^0,f,c
  6559   001FCC  503C               	movf	(??___flmul+2)^0,w,c
  6560   001FCE  2247               	addwfc	(___flmul@prod+2)^0,f,c
  6561   001FD0  503D               	movf	(??___flmul+3)^0,w,c
  6562   001FD2  2248               	addwfc	(___flmul@prod+3)^0,f,c
  6563   001FD4  C03F  F03A         	movff	___flmul@grs,??___flmul
  6564   001FD8  C040  F03B         	movff	___flmul@grs+1,??___flmul+1
  6565   001FDC  C041  F03C         	movff	___flmul@grs+2,??___flmul+2
  6566   001FE0  C042  F03D         	movff	___flmul@grs+3,??___flmul+3
  6567   001FE4  0E19               	movlw	25
  6568   001FE6  EFFA  F00F         	goto	u2920
  6569   001FEA                     u2925:
  6570   001FEA  90D8               	bcf	status,0,c
  6571   001FEC  323D               	rrcf	(??___flmul+3)^0,f,c
  6572   001FEE  323C               	rrcf	(??___flmul+2)^0,f,c
  6573   001FF0  323B               	rrcf	(??___flmul+1)^0,f,c
  6574   001FF2  323A               	rrcf	??___flmul^0,f,c
  6575   001FF4                     u2920:
  6576   001FF4  2EE8               	decfsz	wreg,f,c
  6577   001FF6  EFF5  F00F         	goto	u2925
  6578   001FFA  503A               	movf	??___flmul^0,w,c
  6579   001FFC  2645               	addwf	___flmul@prod^0,f,c
  6580   001FFE  503B               	movf	(??___flmul+1)^0,w,c
  6581   002000  2246               	addwfc	(___flmul@prod+1)^0,f,c
  6582   002002  503C               	movf	(??___flmul+2)^0,w,c
  6583   002004  2247               	addwfc	(___flmul@prod+2)^0,f,c
  6584   002006  503D               	movf	(??___flmul+3)^0,w,c
  6585   002008  2248               	addwfc	(___flmul@prod+3)^0,f,c
  6586   00200A  C041  F042         	movff	___flmul@grs+2,___flmul@grs+3
  6587   00200E  C040  F041         	movff	___flmul@grs+1,___flmul@grs+2
  6588   002012  C03F  F040         	movff	___flmul@grs,___flmul@grs+1
  6589   002016  6A3F               	clrf	___flmul@grs^0,c
  6590   002018  5043               	movf	___flmul@aexp^0,w,c
  6591   00201A  C044  F03A         	movff	___flmul@bexp,??___flmul
  6592   00201E  6A3B               	clrf	(??___flmul+1)^0,c
  6593   002020  263A               	addwf	??___flmul^0,f,c
  6594   002022  0E00               	movlw	0
  6595   002024  223B               	addwfc	(??___flmul+1)^0,f,c
  6596   002026  0E82               	movlw	130
  6597   002028  243A               	addwf	??___flmul^0,w,c
  6598   00202A  6E49               	movwf	___flmul@temp^0,c
  6599   00202C  0EFF               	movlw	255
  6600   00202E  203B               	addwfc	(??___flmul+1)^0,w,c
  6601   002030  6E4A               	movwf	(___flmul@temp+1)^0,c
  6602   002032  EF30  F010         	goto	l2995
  6603   002036                     l2989:
  6604   002036  90D8               	bcf	status,0,c
  6605   002038  3645               	rlcf	___flmul@prod^0,f,c
  6606   00203A  3646               	rlcf	(___flmul@prod+1)^0,f,c
  6607   00203C  3647               	rlcf	(___flmul@prod+2)^0,f,c
  6608   00203E  3648               	rlcf	(___flmul@prod+3)^0,f,c
  6609   002040  AE42               	btfss	(___flmul@grs+3)^0,7,c
  6610   002042  EF25  F010         	goto	u2931
  6611   002046  EF27  F010         	goto	u2930
  6612   00204A                     u2931:
  6613   00204A  EF28  F010         	goto	l950
  6614   00204E                     u2930:
  6615   00204E  8045               	bsf	___flmul@prod^0,0,c
  6616   002050                     l950:
  6617   002050  90D8               	bcf	status,0,c
  6618   002052  363F               	rlcf	___flmul@grs^0,f,c
  6619   002054  3640               	rlcf	(___flmul@grs+1)^0,f,c
  6620   002056  3641               	rlcf	(___flmul@grs+2)^0,f,c
  6621   002058  3642               	rlcf	(___flmul@grs+3)^0,f,c
  6622   00205A  0649               	decf	___flmul@temp^0,f,c
  6623   00205C  A0D8               	btfss	status,0,c
  6624   00205E  064A               	decf	(___flmul@temp+1)^0,f,c
  6625   002060                     l2995:
  6626   002060  AE47               	btfss	(___flmul@prod+2)^0,7,c
  6627   002062  EF35  F010         	goto	u2941
  6628   002066  EF37  F010         	goto	u2940
  6629   00206A                     u2941:
  6630   00206A  EF1B  F010         	goto	l2989
  6631   00206E                     u2940:
  6632   00206E  0E00               	movlw	0
  6633   002070  6E43               	movwf	___flmul@aexp^0,c
  6634   002072  AE42               	btfss	(___flmul@grs+3)^0,7,c
  6635   002074  EF3E  F010         	goto	u2951
  6636   002078  EF40  F010         	goto	u2950
  6637   00207C                     u2951:
  6638   00207C  EF64  F010         	goto	l952
  6639   002080                     u2950:
  6640   002080  0EFF               	movlw	255
  6641   002082  143F               	andwf	___flmul@grs^0,w,c
  6642   002084  6E3A               	movwf	??___flmul^0,c
  6643   002086  0EFF               	movlw	255
  6644   002088  1440               	andwf	(___flmul@grs+1)^0,w,c
  6645   00208A  6E3B               	movwf	(??___flmul+1)^0,c
  6646   00208C  0EFF               	movlw	255
  6647   00208E  1441               	andwf	(___flmul@grs+2)^0,w,c
  6648   002090  6E3C               	movwf	(??___flmul+2)^0,c
  6649   002092  0E7F               	movlw	127
  6650   002094  1442               	andwf	(___flmul@grs+3)^0,w,c
  6651   002096  6E3D               	movwf	(??___flmul+3)^0,c
  6652   002098  503A               	movf	??___flmul^0,w,c
  6653   00209A  103B               	iorwf	(??___flmul+1)^0,w,c
  6654   00209C  103C               	iorwf	(??___flmul+2)^0,w,c
  6655   00209E  103D               	iorwf	(??___flmul+3)^0,w,c
  6656   0020A0  B4D8               	btfsc	status,2,c
  6657   0020A2  EF55  F010         	goto	u2961
  6658   0020A6  EF57  F010         	goto	u2960
  6659   0020AA                     u2961:
  6660   0020AA  EF5B  F010         	goto	l953
  6661   0020AE                     u2960:
  6662   0020AE                     l3003:
  6663   0020AE  0E01               	movlw	1
  6664   0020B0  6E43               	movwf	___flmul@aexp^0,c
  6665   0020B2  EF64  F010         	goto	l952
  6666   0020B6                     l953:
  6667   0020B6  A045               	btfss	___flmul@prod^0,0,c
  6668   0020B8  EF60  F010         	goto	u2971
  6669   0020BC  EF62  F010         	goto	u2970
  6670   0020C0                     u2971:
  6671   0020C0  EF64  F010         	goto	l952
  6672   0020C4                     u2970:
  6673   0020C4  EF57  F010         	goto	l3003
  6674   0020C8                     l952:
  6675   0020C8  5043               	movf	___flmul@aexp^0,w,c
  6676   0020CA  B4D8               	btfsc	status,2,c
  6677   0020CC  EF6A  F010         	goto	u2981
  6678   0020D0  EF6C  F010         	goto	u2980
  6679   0020D4                     u2981:
  6680   0020D4  EF90  F010         	goto	l3015
  6681   0020D8                     u2980:
  6682   0020D8  0E01               	movlw	1
  6683   0020DA  2645               	addwf	___flmul@prod^0,f,c
  6684   0020DC  0E00               	movlw	0
  6685   0020DE  2246               	addwfc	(___flmul@prod+1)^0,f,c
  6686   0020E0  2247               	addwfc	(___flmul@prod+2)^0,f,c
  6687   0020E2  2248               	addwfc	(___flmul@prod+3)^0,f,c
  6688   0020E4  A048               	btfss	(___flmul@prod+3)^0,0,c
  6689   0020E6  EF77  F010         	goto	u2991
  6690   0020EA  EF79  F010         	goto	u2990
  6691   0020EE                     u2991:
  6692   0020EE  EF90  F010         	goto	l3015
  6693   0020F2                     u2990:
  6694   0020F2  C045  F03A         	movff	___flmul@prod,??___flmul
  6695   0020F6  C046  F03B         	movff	___flmul@prod+1,??___flmul+1
  6696   0020FA  C047  F03C         	movff	___flmul@prod+2,??___flmul+2
  6697   0020FE  C048  F03D         	movff	___flmul@prod+3,??___flmul+3
  6698   002102  343D               	rlcf	(??___flmul+3)^0,w,c
  6699   002104  323D               	rrcf	(??___flmul+3)^0,f,c
  6700   002106  323C               	rrcf	(??___flmul+2)^0,f,c
  6701   002108  323B               	rrcf	(??___flmul+1)^0,f,c
  6702   00210A  323A               	rrcf	??___flmul^0,f,c
  6703   00210C  C03A  F045         	movff	??___flmul,___flmul@prod
  6704   002110  C03B  F046         	movff	??___flmul+1,___flmul@prod+1
  6705   002114  C03C  F047         	movff	??___flmul+2,___flmul@prod+2
  6706   002118  C03D  F048         	movff	??___flmul+3,___flmul@prod+3
  6707   00211C  4A49               	infsnz	___flmul@temp^0,f,c
  6708   00211E  2A4A               	incf	(___flmul@temp+1)^0,f,c
  6709   002120                     l3015:
  6710   002120  BE4A               	btfsc	(___flmul@temp+1)^0,7,c
  6711   002122  EF9B  F010         	goto	u3001
  6712   002126  504A               	movf	(___flmul@temp+1)^0,w,c
  6713   002128  E108               	bnz	u3000
  6714   00212A  2849               	incf	___flmul@temp^0,w,c
  6715   00212C  A0D8               	btfss	status,0,c
  6716   00212E  EF9B  F010         	goto	u3001
  6717   002132  EF9D  F010         	goto	u3000
  6718   002136                     u3001:
  6719   002136  EFA7  F010         	goto	l3019
  6720   00213A                     u3000:
  6721   00213A  0E00               	movlw	0
  6722   00213C  6E45               	movwf	___flmul@prod^0,c
  6723   00213E  0E00               	movlw	0
  6724   002140  6E46               	movwf	(___flmul@prod+1)^0,c
  6725   002142  0E80               	movlw	128
  6726   002144  6E47               	movwf	(___flmul@prod+2)^0,c
  6727   002146  0E7F               	movlw	127
  6728   002148  6E48               	movwf	(___flmul@prod+3)^0,c
  6729   00214A  EFD5  F010         	goto	l3031
  6730   00214E                     l3019:
  6731   00214E  BE4A               	btfsc	(___flmul@temp+1)^0,7,c
  6732   002150  EFB4  F010         	goto	u3010
  6733   002154  504A               	movf	(___flmul@temp+1)^0,w,c
  6734   002156  E106               	bnz	u3011
  6735   002158  0449               	decf	___flmul@temp^0,w,c
  6736   00215A  B0D8               	btfsc	status,0,c
  6737   00215C  EFB2  F010         	goto	u3011
  6738   002160  EFB4  F010         	goto	u3010
  6739   002164                     u3011:
  6740   002164  EFC0  F010         	goto	l960
  6741   002168                     u3010:
  6742   002168  0E00               	movlw	0
  6743   00216A  6E45               	movwf	___flmul@prod^0,c
  6744   00216C  0E00               	movlw	0
  6745   00216E  6E46               	movwf	(___flmul@prod+1)^0,c
  6746   002170  0E00               	movlw	0
  6747   002172  6E47               	movwf	(___flmul@prod+2)^0,c
  6748   002174  0E00               	movlw	0
  6749   002176  6E48               	movwf	(___flmul@prod+3)^0,c
  6750   002178  0E00               	movlw	0
  6751   00217A  6E3E               	movwf	___flmul@sign^0,c
  6752   00217C  EFD5  F010         	goto	l3031
  6753   002180                     l960:
  6754   002180  C049  F044         	movff	___flmul@temp,___flmul@bexp
  6755   002184  0EFF               	movlw	255
  6756   002186  1645               	andwf	___flmul@prod^0,f,c
  6757   002188  0EFF               	movlw	255
  6758   00218A  1646               	andwf	(___flmul@prod+1)^0,f,c
  6759   00218C  0E7F               	movlw	127
  6760   00218E  1647               	andwf	(___flmul@prod+2)^0,f,c
  6761   002190  0E00               	movlw	0
  6762   002192  1648               	andwf	(___flmul@prod+3)^0,f,c
  6763   002194  A044               	btfss	___flmul@bexp^0,0,c
  6764   002196  EFCF  F010         	goto	u3021
  6765   00219A  EFD1  F010         	goto	u3020
  6766   00219E                     u3021:
  6767   00219E  EFD2  F010         	goto	l3029
  6768   0021A2                     u3020:
  6769   0021A2  8E47               	bsf	(___flmul@prod+2)^0,7,c
  6770   0021A4                     l3029:
  6771   0021A4  90D8               	bcf	status,0,c
  6772   0021A6  3044               	rrcf	___flmul@bexp^0,w,c
  6773   0021A8  6E48               	movwf	(___flmul@prod+3)^0,c
  6774   0021AA                     l3031:
  6775   0021AA  503E               	movf	___flmul@sign^0,w,c
  6776   0021AC  1248               	iorwf	(___flmul@prod+3)^0,f,c
  6777   0021AE  C045  F032         	movff	___flmul@prod,?___flmul
  6778   0021B2  C046  F033         	movff	___flmul@prod+1,?___flmul+1
  6779   0021B6  C047  F034         	movff	___flmul@prod+2,?___flmul+2
  6780   0021BA  C048  F035         	movff	___flmul@prod+3,?___flmul+3
  6781   0021BE                     l947:
  6782   0021BE  0012               	return		;funcret
  6783   0021C0                     __end_of___flmul:
  6784                           	callstack 0
  6785                           
  6786 ;; *************** function ___flge *****************
  6787 ;; Defined at:
  6788 ;;		line 4 in file "C:\Program Files\Microchip\xc8\v2.40\pic\sources\c99\common\flge.c"
  6789 ;; Parameters:    Size  Location     Type
  6790 ;;  ff1             4    0[COMRAM] unsigned char 
  6791 ;;  ff2             4    4[COMRAM] unsigned char 
  6792 ;; Auto vars:     Size  Location     Type
  6793 ;;		None
  6794 ;; Return value:  Size  Location     Type
  6795 ;;		None               void
  6796 ;; Registers used:
  6797 ;;		wreg, status,2, status,0
  6798 ;; Tracked objects:
  6799 ;;		On entry : 0/0
  6800 ;;		On exit  : 0/0
  6801 ;;		Unchanged: 0/0
  6802 ;; Data sizes:     COMRAM   BANK0   BANK1   BANK2   BANK3   BANK4   BANK5   BANK6   BANK7   BANK8   BANK9  BANK10  BANK1
      +1  BANK12  BANK13
  6803 ;;      Params:         8       0       0       0       0       0       0       0       0       0       0       0       
      +0       0       0
  6804 ;;      Locals:         0       0       0       0       0       0       0       0       0       0       0       0       
      +0       0       0
  6805 ;;      Temps:          4       0       0       0       0       0       0       0       0       0       0       0       
      +0       0       0
  6806 ;;      Totals:        12       0       0       0       0       0       0       0       0       0       0       0       
      +0       0       0
  6807 ;;Total ram usage:       12 bytes
  6808 ;; Hardware stack levels used: 1
  6809 ;; Hardware stack levels required when called: 1
  6810 ;; This function calls:
  6811 ;;		Nothing
  6812 ;; This function is called by:
  6813 ;;		_Colour_decider
  6814 ;; This function uses a non-reentrant model
  6815 ;;
  6816                           
  6817                           	psect	text36
  6818   0030F4                     __ptext36:
  6819                           	callstack 0
  6820   0030F4                     ___flge:
  6821                           	callstack 28
  6822   0030F4  0E00               	movlw	0
  6823   0030F6  1401               	andwf	___flge@ff1^0,w,c
  6824   0030F8  6E09               	movwf	??___flge^0,c
  6825   0030FA  0E00               	movlw	0
  6826   0030FC  1402               	andwf	(___flge@ff1+1)^0,w,c
  6827   0030FE  6E0A               	movwf	(??___flge+1)^0,c
  6828   003100  0E80               	movlw	128
  6829   003102  1403               	andwf	(___flge@ff1+2)^0,w,c
  6830   003104  6E0B               	movwf	(??___flge+2)^0,c
  6831   003106  0E7F               	movlw	127
  6832   003108  1404               	andwf	(___flge@ff1+3)^0,w,c
  6833   00310A  6E0C               	movwf	(??___flge+3)^0,c
  6834   00310C  5009               	movf	??___flge^0,w,c
  6835   00310E  100A               	iorwf	(??___flge+1)^0,w,c
  6836   003110  100B               	iorwf	(??___flge+2)^0,w,c
  6837   003112  100C               	iorwf	(??___flge+3)^0,w,c
  6838   003114  A4D8               	btfss	status,2,c
  6839   003116  EF8F  F018         	goto	u3061
  6840   00311A  EF91  F018         	goto	u3060
  6841   00311E                     u3061:
  6842   00311E  EF99  F018         	goto	l3063
  6843   003122                     u3060:
  6844   003122  0E00               	movlw	0
  6845   003124  6E01               	movwf	___flge@ff1^0,c
  6846   003126  0E00               	movlw	0
  6847   003128  6E02               	movwf	(___flge@ff1+1)^0,c
  6848   00312A  0E00               	movlw	0
  6849   00312C  6E03               	movwf	(___flge@ff1+2)^0,c
  6850   00312E  0E00               	movlw	0
  6851   003130  6E04               	movwf	(___flge@ff1+3)^0,c
  6852   003132                     l3063:
  6853   003132  0E00               	movlw	0
  6854   003134  1405               	andwf	___flge@ff2^0,w,c
  6855   003136  6E09               	movwf	??___flge^0,c
  6856   003138  0E00               	movlw	0
  6857   00313A  1406               	andwf	(___flge@ff2+1)^0,w,c
  6858   00313C  6E0A               	movwf	(??___flge+1)^0,c
  6859   00313E  0E80               	movlw	128
  6860   003140  1407               	andwf	(___flge@ff2+2)^0,w,c
  6861   003142  6E0B               	movwf	(??___flge+2)^0,c
  6862   003144  0E7F               	movlw	127
  6863   003146  1408               	andwf	(___flge@ff2+3)^0,w,c
  6864   003148  6E0C               	movwf	(??___flge+3)^0,c
  6865   00314A  5009               	movf	??___flge^0,w,c
  6866   00314C  100A               	iorwf	(??___flge+1)^0,w,c
  6867   00314E  100B               	iorwf	(??___flge+2)^0,w,c
  6868   003150  100C               	iorwf	(??___flge+3)^0,w,c
  6869   003152  A4D8               	btfss	status,2,c
  6870   003154  EFAE  F018         	goto	u3071
  6871   003158  EFB0  F018         	goto	u3070
  6872   00315C                     u3071:
  6873   00315C  EFB8  F018         	goto	l3067
  6874   003160                     u3070:
  6875   003160  0E00               	movlw	0
  6876   003162  6E05               	movwf	___flge@ff2^0,c
  6877   003164  0E00               	movlw	0
  6878   003166  6E06               	movwf	(___flge@ff2+1)^0,c
  6879   003168  0E00               	movlw	0
  6880   00316A  6E07               	movwf	(___flge@ff2+2)^0,c
  6881   00316C  0E00               	movlw	0
  6882   00316E  6E08               	movwf	(___flge@ff2+3)^0,c
  6883   003170                     l3067:
  6884   003170  AE04               	btfss	(___flge@ff1+3)^0,7,c
  6885   003172  EFBD  F018         	goto	u3081
  6886   003176  EFBF  F018         	goto	u3080
  6887   00317A                     u3081:
  6888   00317A  EFC8  F018         	goto	l3071
  6889   00317E                     u3080:
  6890   00317E  6C01               	negf	___flge@ff1^0,c
  6891   003180  1E02               	comf	(___flge@ff1+1)^0,f,c
  6892   003182  B0D8               	btfsc	status,0,c
  6893   003184  2A02               	incf	(___flge@ff1+1)^0,f,c
  6894   003186  1E03               	comf	(___flge@ff1+2)^0,f,c
  6895   003188  B0D8               	btfsc	status,0,c
  6896   00318A  2A03               	incf	(___flge@ff1+2)^0,f,c
  6897   00318C  0E80               	movlw	128
  6898   00318E  5604               	subfwb	(___flge@ff1+3)^0,f,c
  6899   003190                     l3071:
  6900   003190  AE08               	btfss	(___flge@ff2+3)^0,7,c
  6901   003192  EFCD  F018         	goto	u3091
  6902   003196  EFCF  F018         	goto	u3090
  6903   00319A                     u3091:
  6904   00319A  EFD8  F018         	goto	l594
  6905   00319E                     u3090:
  6906   00319E  6C05               	negf	___flge@ff2^0,c
  6907   0031A0  1E06               	comf	(___flge@ff2+1)^0,f,c
  6908   0031A2  B0D8               	btfsc	status,0,c
  6909   0031A4  2A06               	incf	(___flge@ff2+1)^0,f,c
  6910   0031A6  1E07               	comf	(___flge@ff2+2)^0,f,c
  6911   0031A8  B0D8               	btfsc	status,0,c
  6912   0031AA  2A07               	incf	(___flge@ff2+2)^0,f,c
  6913   0031AC  0E80               	movlw	128
  6914   0031AE  5608               	subfwb	(___flge@ff2+3)^0,f,c
  6915   0031B0                     l594:
  6916   0031B0  0E00               	movlw	0
  6917   0031B2  1A01               	xorwf	___flge@ff1^0,f,c
  6918   0031B4  0E00               	movlw	0
  6919   0031B6  1A02               	xorwf	(___flge@ff1+1)^0,f,c
  6920   0031B8  0E00               	movlw	0
  6921   0031BA  1A03               	xorwf	(___flge@ff1+2)^0,f,c
  6922   0031BC  0E80               	movlw	128
  6923   0031BE  1A04               	xorwf	(___flge@ff1+3)^0,f,c
  6924   0031C0  0E00               	movlw	0
  6925   0031C2  1A05               	xorwf	___flge@ff2^0,f,c
  6926   0031C4  0E00               	movlw	0
  6927   0031C6  1A06               	xorwf	(___flge@ff2+1)^0,f,c
  6928   0031C8  0E00               	movlw	0
  6929   0031CA  1A07               	xorwf	(___flge@ff2+2)^0,f,c
  6930   0031CC  0E80               	movlw	128
  6931   0031CE  1A08               	xorwf	(___flge@ff2+3)^0,f,c
  6932   0031D0  5005               	movf	___flge@ff2^0,w,c
  6933   0031D2  5C01               	subwf	___flge@ff1^0,w,c
  6934   0031D4  5006               	movf	(___flge@ff2+1)^0,w,c
  6935   0031D6  5802               	subwfb	(___flge@ff1+1)^0,w,c
  6936   0031D8  5007               	movf	(___flge@ff2+2)^0,w,c
  6937   0031DA  5803               	subwfb	(___flge@ff1+2)^0,w,c
  6938   0031DC  5008               	movf	(___flge@ff2+3)^0,w,c
  6939   0031DE  5804               	subwfb	(___flge@ff1+3)^0,w,c
  6940   0031E0  B0D8               	btfsc	status,0,c
  6941   0031E2  EFF5  F018         	goto	u3101
  6942   0031E6  EFF7  F018         	goto	u3100
  6943   0031EA                     u3101:
  6944   0031EA  EFFA  F018         	goto	l3077
  6945   0031EE                     u3100:
  6946   0031EE  90D8               	bcf	status,0,c
  6947   0031F0  EFFB  F018         	goto	l599
  6948   0031F4                     l3077:
  6949   0031F4  80D8               	bsf	status,0,c
  6950   0031F6                     l599:
  6951   0031F6  0012               	return		;funcret
  6952   0031F8                     __end_of___flge:
  6953                           	callstack 0
  6954                           
  6955 ;; *************** function ___fleq *****************
  6956 ;; Defined at:
  6957 ;;		line 4 in file "C:\Program Files\Microchip\xc8\v2.40\pic\sources\c99\common\fleq.c"
  6958 ;; Parameters:    Size  Location     Type
  6959 ;;  ff1             4   24[COMRAM] unsigned char 
  6960 ;;  ff2             4   28[COMRAM] unsigned char 
  6961 ;; Auto vars:     Size  Location     Type
  6962 ;;		None
  6963 ;; Return value:  Size  Location     Type
  6964 ;;		None               void
  6965 ;; Registers used:
  6966 ;;		wreg, status,2, status,0
  6967 ;; Tracked objects:
  6968 ;;		On entry : 0/0
  6969 ;;		On exit  : 0/0
  6970 ;;		Unchanged: 0/0
  6971 ;; Data sizes:     COMRAM   BANK0   BANK1   BANK2   BANK3   BANK4   BANK5   BANK6   BANK7   BANK8   BANK9  BANK10  BANK1
      +1  BANK12  BANK13
  6972 ;;      Params:         8       0       0       0       0       0       0       0       0       0       0       0       
      +0       0       0
  6973 ;;      Locals:         0       0       0       0       0       0       0       0       0       0       0       0       
      +0       0       0
  6974 ;;      Temps:          4       0       0       0       0       0       0       0       0       0       0       0       
      +0       0       0
  6975 ;;      Totals:        12       0       0       0       0       0       0       0       0       0       0       0       
      +0       0       0
  6976 ;;Total ram usage:       12 bytes
  6977 ;; Hardware stack levels used: 1
  6978 ;; Hardware stack levels required when called: 1
  6979 ;; This function calls:
  6980 ;;		Nothing
  6981 ;; This function is called by:
  6982 ;;		_Colour_decider
  6983 ;; This function uses a non-reentrant model
  6984 ;;
  6985                           
  6986                           	psect	text37
  6987   0033BC                     __ptext37:
  6988                           	callstack 0
  6989   0033BC                     ___fleq:
  6990                           	callstack 28
  6991   0033BC  0E00               	movlw	0
  6992   0033BE  1419               	andwf	___fleq@ff1^0,w,c
  6993   0033C0  6E21               	movwf	??___fleq^0,c
  6994   0033C2  0E00               	movlw	0
  6995   0033C4  141A               	andwf	(___fleq@ff1+1)^0,w,c
  6996   0033C6  6E22               	movwf	(??___fleq+1)^0,c
  6997   0033C8  0E80               	movlw	128
  6998   0033CA  141B               	andwf	(___fleq@ff1+2)^0,w,c
  6999   0033CC  6E23               	movwf	(??___fleq+2)^0,c
  7000   0033CE  0E7F               	movlw	127
  7001   0033D0  141C               	andwf	(___fleq@ff1+3)^0,w,c
  7002   0033D2  6E24               	movwf	(??___fleq+3)^0,c
  7003   0033D4  5021               	movf	??___fleq^0,w,c
  7004   0033D6  1022               	iorwf	(??___fleq+1)^0,w,c
  7005   0033D8  1023               	iorwf	(??___fleq+2)^0,w,c
  7006   0033DA  1024               	iorwf	(??___fleq+3)^0,w,c
  7007   0033DC  A4D8               	btfss	status,2,c
  7008   0033DE  EFF3  F019         	goto	u3031
  7009   0033E2  EFF5  F019         	goto	u3030
  7010   0033E6                     u3031:
  7011   0033E6  EFFD  F019         	goto	l3047
  7012   0033EA                     u3030:
  7013   0033EA  0E00               	movlw	0
  7014   0033EC  6E19               	movwf	___fleq@ff1^0,c
  7015   0033EE  0E00               	movlw	0
  7016   0033F0  6E1A               	movwf	(___fleq@ff1+1)^0,c
  7017   0033F2  0E00               	movlw	0
  7018   0033F4  6E1B               	movwf	(___fleq@ff1+2)^0,c
  7019   0033F6  0E00               	movlw	0
  7020   0033F8  6E1C               	movwf	(___fleq@ff1+3)^0,c
  7021   0033FA                     l3047:
  7022   0033FA  0E00               	movlw	0
  7023   0033FC  141D               	andwf	___fleq@ff2^0,w,c
  7024   0033FE  6E21               	movwf	??___fleq^0,c
  7025   003400  0E00               	movlw	0
  7026   003402  141E               	andwf	(___fleq@ff2+1)^0,w,c
  7027   003404  6E22               	movwf	(??___fleq+1)^0,c
  7028   003406  0E80               	movlw	128
  7029   003408  141F               	andwf	(___fleq@ff2+2)^0,w,c
  7030   00340A  6E23               	movwf	(??___fleq+2)^0,c
  7031   00340C  0E7F               	movlw	127
  7032   00340E  1420               	andwf	(___fleq@ff2+3)^0,w,c
  7033   003410  6E24               	movwf	(??___fleq+3)^0,c
  7034   003412  5021               	movf	??___fleq^0,w,c
  7035   003414  1022               	iorwf	(??___fleq+1)^0,w,c
  7036   003416  1023               	iorwf	(??___fleq+2)^0,w,c
  7037   003418  1024               	iorwf	(??___fleq+3)^0,w,c
  7038   00341A  A4D8               	btfss	status,2,c
  7039   00341C  EF12  F01A         	goto	u3041
  7040   003420  EF14  F01A         	goto	u3040
  7041   003424                     u3041:
  7042   003424  EF1C  F01A         	goto	l3051
  7043   003428                     u3040:
  7044   003428  0E00               	movlw	0
  7045   00342A  6E1D               	movwf	___fleq@ff2^0,c
  7046   00342C  0E00               	movlw	0
  7047   00342E  6E1E               	movwf	(___fleq@ff2+1)^0,c
  7048   003430  0E00               	movlw	0
  7049   003432  6E1F               	movwf	(___fleq@ff2+2)^0,c
  7050   003434  0E00               	movlw	0
  7051   003436  6E20               	movwf	(___fleq@ff2+3)^0,c
  7052   003438                     l3051:
  7053   003438  501D               	movf	___fleq@ff2^0,w,c
  7054   00343A  1819               	xorwf	___fleq@ff1^0,w,c
  7055   00343C  E10F               	bnz	u3050
  7056   00343E  501E               	movf	(___fleq@ff2+1)^0,w,c
  7057   003440  181A               	xorwf	(___fleq@ff1+1)^0,w,c
  7058   003442  E10C               	bnz	u3050
  7059   003444  501F               	movf	(___fleq@ff2+2)^0,w,c
  7060   003446  181B               	xorwf	(___fleq@ff1+2)^0,w,c
  7061   003448  E109               	bnz	u3050
  7062   00344A  5020               	movf	(___fleq@ff2+3)^0,w,c
  7063   00344C  181C               	xorwf	(___fleq@ff1+3)^0,w,c
  7064   00344E  B4D8               	btfsc	status,2,c
  7065   003450  EF2C  F01A         	goto	u3051
  7066   003454  EF2E  F01A         	goto	u3050
  7067   003458                     u3051:
  7068   003458  EF31  F01A         	goto	l3055
  7069   00345C                     u3050:
  7070   00345C  90D8               	bcf	status,0,c
  7071   00345E  EF32  F01A         	goto	l588
  7072   003462                     l3055:
  7073   003462  80D8               	bsf	status,0,c
  7074   003464                     l588:
  7075   003464  0012               	return		;funcret
  7076   003466                     __end_of___fleq:
  7077                           	callstack 0
  7078                           
  7079 ;; *************** function ___fldiv *****************
  7080 ;; Defined at:
  7081 ;;		line 11 in file "C:\Program Files\Microchip\xc8\v2.40\pic\sources\c99\common\sprcdiv.c"
  7082 ;; Parameters:    Size  Location     Type
  7083 ;;  b               4   24[COMRAM] unsigned char 
  7084 ;;  a               4   28[COMRAM] unsigned char 
  7085 ;; Auto vars:     Size  Location     Type
  7086 ;;  grs             4   43[COMRAM] unsigned long 
  7087 ;;  rem             4   36[COMRAM] unsigned long 
  7088 ;;  new_exp         2   41[COMRAM] short 
  7089 ;;  aexp            1   48[COMRAM] unsigned char 
  7090 ;;  bexp            1   47[COMRAM] unsigned char 
  7091 ;;  sign            1   40[COMRAM] unsigned char 
  7092 ;; Return value:  Size  Location     Type
  7093 ;;                  4   24[COMRAM] unsigned char 
  7094 ;; Registers used:
  7095 ;;		wreg, status,2, status,0
  7096 ;; Tracked objects:
  7097 ;;		On entry : 0/0
  7098 ;;		On exit  : 0/0
  7099 ;;		Unchanged: 0/0
  7100 ;; Data sizes:     COMRAM   BANK0   BANK1   BANK2   BANK3   BANK4   BANK5   BANK6   BANK7   BANK8   BANK9  BANK10  BANK1
      +1  BANK12  BANK13
  7101 ;;      Params:         8       0       0       0       0       0       0       0       0       0       0       0       
      +0       0       0
  7102 ;;      Locals:        13       0       0       0       0       0       0       0       0       0       0       0       
      +0       0       0
  7103 ;;      Temps:          4       0       0       0       0       0       0       0       0       0       0       0       
      +0       0       0
  7104 ;;      Totals:        25       0       0       0       0       0       0       0       0       0       0       0       
      +0       0       0
  7105 ;;Total ram usage:       25 bytes
  7106 ;; Hardware stack levels used: 1
  7107 ;; Hardware stack levels required when called: 1
  7108 ;; This function calls:
  7109 ;;		Nothing
  7110 ;; This function is called by:
  7111 ;;		_colour_rel
  7112 ;;		_Colour_decider
  7113 ;; This function uses a non-reentrant model
  7114 ;;
  7115                           
  7116                           	psect	text38
  7117   0021C0                     __ptext38:
  7118                           	callstack 0
  7119   0021C0                     ___fldiv:
  7120                           	callstack 28
  7121   0021C0  501C               	movf	(___fldiv@b+3)^0,w,c
  7122   0021C2  0B80               	andlw	128
  7123   0021C4  6E29               	movwf	___fldiv@sign^0,c
  7124   0021C6  501C               	movf	(___fldiv@b+3)^0,w,c
  7125   0021C8  241C               	addwf	(___fldiv@b+3)^0,w,c
  7126   0021CA  6E30               	movwf	___fldiv@bexp^0,c
  7127   0021CC  AE1B               	btfss	(___fldiv@b+2)^0,7,c
  7128   0021CE  EFEB  F010         	goto	u2611
  7129   0021D2  EFED  F010         	goto	u2610
  7130   0021D6                     u2611:
  7131   0021D6  EFEE  F010         	goto	l2775
  7132   0021DA                     u2610:
  7133   0021DA  8030               	bsf	___fldiv@bexp^0,0,c
  7134   0021DC                     l2775:
  7135   0021DC  5030               	movf	___fldiv@bexp^0,w,c
  7136   0021DE  B4D8               	btfsc	status,2,c
  7137   0021E0  EFF4  F010         	goto	u2621
  7138   0021E4  EFF6  F010         	goto	u2620
  7139   0021E8                     u2621:
  7140   0021E8  EF0B  F011         	goto	l2785
  7141   0021EC                     u2620:
  7142   0021EC  2830               	incf	___fldiv@bexp^0,w,c
  7143   0021EE  A4D8               	btfss	status,2,c
  7144   0021F0  EFFC  F010         	goto	u2631
  7145   0021F4  EFFE  F010         	goto	u2630
  7146   0021F8                     u2631:
  7147   0021F8  EF06  F011         	goto	l2781
  7148   0021FC                     u2630:
  7149   0021FC  0E00               	movlw	0
  7150   0021FE  6E19               	movwf	___fldiv@b^0,c
  7151   002200  0E00               	movlw	0
  7152   002202  6E1A               	movwf	(___fldiv@b+1)^0,c
  7153   002204  0E00               	movlw	0
  7154   002206  6E1B               	movwf	(___fldiv@b+2)^0,c
  7155   002208  0E00               	movlw	0
  7156   00220A  6E1C               	movwf	(___fldiv@b+3)^0,c
  7157   00220C                     l2781:
  7158   00220C  8E1B               	bsf	(___fldiv@b+2)^0,7,c
  7159   00220E  0E00               	movlw	0
  7160   002210  6E1C               	movwf	(___fldiv@b+3)^0,c
  7161   002212  EF13  F011         	goto	l2787
  7162   002216                     l2785:
  7163   002216  0E00               	movlw	0
  7164   002218  6E19               	movwf	___fldiv@b^0,c
  7165   00221A  0E00               	movlw	0
  7166   00221C  6E1A               	movwf	(___fldiv@b+1)^0,c
  7167   00221E  0E00               	movlw	0
  7168   002220  6E1B               	movwf	(___fldiv@b+2)^0,c
  7169   002222  0E00               	movlw	0
  7170   002224  6E1C               	movwf	(___fldiv@b+3)^0,c
  7171   002226                     l2787:
  7172   002226  5020               	movf	(___fldiv@a+3)^0,w,c
  7173   002228  0B80               	andlw	128
  7174   00222A  1A29               	xorwf	___fldiv@sign^0,f,c
  7175   00222C  5020               	movf	(___fldiv@a+3)^0,w,c
  7176   00222E  2420               	addwf	(___fldiv@a+3)^0,w,c
  7177   002230  6E31               	movwf	___fldiv@aexp^0,c
  7178   002232  AE1F               	btfss	(___fldiv@a+2)^0,7,c
  7179   002234  EF1E  F011         	goto	u2641
  7180   002238  EF20  F011         	goto	u2640
  7181   00223C                     u2641:
  7182   00223C  EF21  F011         	goto	l2795
  7183   002240                     u2640:
  7184   002240  8031               	bsf	___fldiv@aexp^0,0,c
  7185   002242                     l2795:
  7186   002242  5031               	movf	___fldiv@aexp^0,w,c
  7187   002244  B4D8               	btfsc	status,2,c
  7188   002246  EF27  F011         	goto	u2651
  7189   00224A  EF29  F011         	goto	u2650
  7190   00224E                     u2651:
  7191   00224E  EF3E  F011         	goto	l2805
  7192   002252                     u2650:
  7193   002252  2831               	incf	___fldiv@aexp^0,w,c
  7194   002254  A4D8               	btfss	status,2,c
  7195   002256  EF2F  F011         	goto	u2661
  7196   00225A  EF31  F011         	goto	u2660
  7197   00225E                     u2661:
  7198   00225E  EF39  F011         	goto	l2801
  7199   002262                     u2660:
  7200   002262  0E00               	movlw	0
  7201   002264  6E1D               	movwf	___fldiv@a^0,c
  7202   002266  0E00               	movlw	0
  7203   002268  6E1E               	movwf	(___fldiv@a+1)^0,c
  7204   00226A  0E00               	movlw	0
  7205   00226C  6E1F               	movwf	(___fldiv@a+2)^0,c
  7206   00226E  0E00               	movlw	0
  7207   002270  6E20               	movwf	(___fldiv@a+3)^0,c
  7208   002272                     l2801:
  7209   002272  8E1F               	bsf	(___fldiv@a+2)^0,7,c
  7210   002274  0E00               	movlw	0
  7211   002276  6E20               	movwf	(___fldiv@a+3)^0,c
  7212   002278  EF46  F011         	goto	l2807
  7213   00227C                     l2805:
  7214   00227C  0E00               	movlw	0
  7215   00227E  6E1D               	movwf	___fldiv@a^0,c
  7216   002280  0E00               	movlw	0
  7217   002282  6E1E               	movwf	(___fldiv@a+1)^0,c
  7218   002284  0E00               	movlw	0
  7219   002286  6E1F               	movwf	(___fldiv@a+2)^0,c
  7220   002288  0E00               	movlw	0
  7221   00228A  6E20               	movwf	(___fldiv@a+3)^0,c
  7222   00228C                     l2807:
  7223   00228C  501D               	movf	___fldiv@a^0,w,c
  7224   00228E  101E               	iorwf	(___fldiv@a+1)^0,w,c
  7225   002290  101F               	iorwf	(___fldiv@a+2)^0,w,c
  7226   002292  1020               	iorwf	(___fldiv@a+3)^0,w,c
  7227   002294  A4D8               	btfss	status,2,c
  7228   002296  EF4F  F011         	goto	u2671
  7229   00229A  EF51  F011         	goto	u2670
  7230   00229E                     u2671:
  7231   00229E  EF69  F011         	goto	l2819
  7232   0022A2                     u2670:
  7233   0022A2  0E00               	movlw	0
  7234   0022A4  6E19               	movwf	___fldiv@b^0,c
  7235   0022A6  0E00               	movlw	0
  7236   0022A8  6E1A               	movwf	(___fldiv@b+1)^0,c
  7237   0022AA  0E00               	movlw	0
  7238   0022AC  6E1B               	movwf	(___fldiv@b+2)^0,c
  7239   0022AE  0E00               	movlw	0
  7240   0022B0  6E1C               	movwf	(___fldiv@b+3)^0,c
  7241   0022B2  0E80               	movlw	128
  7242   0022B4  121B               	iorwf	(___fldiv@b+2)^0,f,c
  7243   0022B6  0E7F               	movlw	127
  7244   0022B8  121C               	iorwf	(___fldiv@b+3)^0,f,c
  7245   0022BA                     l2813:
  7246   0022BA  5029               	movf	___fldiv@sign^0,w,c
  7247   0022BC  121C               	iorwf	(___fldiv@b+3)^0,f,c
  7248   0022BE  C019  F019         	movff	___fldiv@b,?___fldiv
  7249   0022C2  C01A  F01A         	movff	___fldiv@b+1,?___fldiv+1
  7250   0022C6  C01B  F01B         	movff	___fldiv@b+2,?___fldiv+2
  7251   0022CA  C01C  F01C         	movff	___fldiv@b+3,?___fldiv+3
  7252   0022CE  EFAC  F012         	goto	l911
  7253   0022D2                     l2819:
  7254   0022D2  5030               	movf	___fldiv@bexp^0,w,c
  7255   0022D4  A4D8               	btfss	status,2,c
  7256   0022D6  EF6F  F011         	goto	u2681
  7257   0022DA  EF71  F011         	goto	u2680
  7258   0022DE                     u2681:
  7259   0022DE  EF7B  F011         	goto	l2827
  7260   0022E2                     u2680:
  7261   0022E2  0E00               	movlw	0
  7262   0022E4  6E19               	movwf	?___fldiv^0,c
  7263   0022E6  0E00               	movlw	0
  7264   0022E8  6E1A               	movwf	(?___fldiv+1)^0,c
  7265   0022EA  0E00               	movlw	0
  7266   0022EC  6E1B               	movwf	(?___fldiv+2)^0,c
  7267   0022EE  0E00               	movlw	0
  7268   0022F0  6E1C               	movwf	(?___fldiv+3)^0,c
  7269   0022F2  EFAC  F012         	goto	l911
  7270   0022F6                     l2827:
  7271   0022F6  5031               	movf	___fldiv@aexp^0,w,c
  7272   0022F8  C030  F021         	movff	___fldiv@bexp,??___fldiv
  7273   0022FC  6A22               	clrf	(??___fldiv+1)^0,c
  7274   0022FE  5E21               	subwf	??___fldiv^0,f,c
  7275   002300  0E00               	movlw	0
  7276   002302  5A22               	subwfb	(??___fldiv+1)^0,f,c
  7277   002304  0E7F               	movlw	127
  7278   002306  2421               	addwf	??___fldiv^0,w,c
  7279   002308  6E2A               	movwf	___fldiv@new_exp^0,c
  7280   00230A  0E00               	movlw	0
  7281   00230C  2022               	addwfc	(??___fldiv+1)^0,w,c
  7282   00230E  6E2B               	movwf	(___fldiv@new_exp+1)^0,c
  7283   002310  C019  F025         	movff	___fldiv@b,___fldiv@rem
  7284   002314  C01A  F026         	movff	___fldiv@b+1,___fldiv@rem+1
  7285   002318  C01B  F027         	movff	___fldiv@b+2,___fldiv@rem+2
  7286   00231C  C01C  F028         	movff	___fldiv@b+3,___fldiv@rem+3
  7287   002320  0E00               	movlw	0
  7288   002322  6E19               	movwf	___fldiv@b^0,c
  7289   002324  0E00               	movlw	0
  7290   002326  6E1A               	movwf	(___fldiv@b+1)^0,c
  7291   002328  0E00               	movlw	0
  7292   00232A  6E1B               	movwf	(___fldiv@b+2)^0,c
  7293   00232C  0E00               	movlw	0
  7294   00232E  6E1C               	movwf	(___fldiv@b+3)^0,c
  7295   002330  0E00               	movlw	0
  7296   002332  6E2C               	movwf	___fldiv@grs^0,c
  7297   002334  0E00               	movlw	0
  7298   002336  6E2D               	movwf	(___fldiv@grs+1)^0,c
  7299   002338  0E00               	movlw	0
  7300   00233A  6E2E               	movwf	(___fldiv@grs+2)^0,c
  7301   00233C  0E00               	movlw	0
  7302   00233E  6E2F               	movwf	(___fldiv@grs+3)^0,c
  7303   002340  0E00               	movlw	0
  7304   002342  6E31               	movwf	___fldiv@aexp^0,c
  7305   002344  EFDC  F011         	goto	l913
  7306   002348                     l2837:
  7307   002348  5031               	movf	___fldiv@aexp^0,w,c
  7308   00234A  B4D8               	btfsc	status,2,c
  7309   00234C  EFAA  F011         	goto	u2691
  7310   002350  EFAC  F011         	goto	u2690
  7311   002354                     u2691:
  7312   002354  EFC3  F011         	goto	l2845
  7313   002358                     u2690:
  7314   002358  90D8               	bcf	status,0,c
  7315   00235A  3625               	rlcf	___fldiv@rem^0,f,c
  7316   00235C  3626               	rlcf	(___fldiv@rem+1)^0,f,c
  7317   00235E  3627               	rlcf	(___fldiv@rem+2)^0,f,c
  7318   002360  3628               	rlcf	(___fldiv@rem+3)^0,f,c
  7319   002362  90D8               	bcf	status,0,c
  7320   002364  3619               	rlcf	___fldiv@b^0,f,c
  7321   002366  361A               	rlcf	(___fldiv@b+1)^0,f,c
  7322   002368  361B               	rlcf	(___fldiv@b+2)^0,f,c
  7323   00236A  361C               	rlcf	(___fldiv@b+3)^0,f,c
  7324   00236C  AE2F               	btfss	(___fldiv@grs+3)^0,7,c
  7325   00236E  EFBB  F011         	goto	u2701
  7326   002372  EFBD  F011         	goto	u2700
  7327   002376                     u2701:
  7328   002376  EFBE  F011         	goto	l916
  7329   00237A                     u2700:
  7330   00237A  8019               	bsf	___fldiv@b^0,0,c
  7331   00237C                     l916:
  7332   00237C  90D8               	bcf	status,0,c
  7333   00237E  362C               	rlcf	___fldiv@grs^0,f,c
  7334   002380  362D               	rlcf	(___fldiv@grs+1)^0,f,c
  7335   002382  362E               	rlcf	(___fldiv@grs+2)^0,f,c
  7336   002384  362F               	rlcf	(___fldiv@grs+3)^0,f,c
  7337   002386                     l2845:
  7338   002386  501D               	movf	___fldiv@a^0,w,c
  7339   002388  5C25               	subwf	___fldiv@rem^0,w,c
  7340   00238A  501E               	movf	(___fldiv@a+1)^0,w,c
  7341   00238C  5826               	subwfb	(___fldiv@rem+1)^0,w,c
  7342   00238E  501F               	movf	(___fldiv@a+2)^0,w,c
  7343   002390  5827               	subwfb	(___fldiv@rem+2)^0,w,c
  7344   002392  5020               	movf	(___fldiv@a+3)^0,w,c
  7345   002394  5828               	subwfb	(___fldiv@rem+3)^0,w,c
  7346   002396  A0D8               	btfss	status,0,c
  7347   002398  EFD0  F011         	goto	u2711
  7348   00239C  EFD2  F011         	goto	u2710
  7349   0023A0                     u2711:
  7350   0023A0  EFDB  F011         	goto	l2851
  7351   0023A4                     u2710:
  7352   0023A4  8C2F               	bsf	(___fldiv@grs+3)^0,6,c
  7353   0023A6  501D               	movf	___fldiv@a^0,w,c
  7354   0023A8  5E25               	subwf	___fldiv@rem^0,f,c
  7355   0023AA  501E               	movf	(___fldiv@a+1)^0,w,c
  7356   0023AC  5A26               	subwfb	(___fldiv@rem+1)^0,f,c
  7357   0023AE  501F               	movf	(___fldiv@a+2)^0,w,c
  7358   0023B0  5A27               	subwfb	(___fldiv@rem+2)^0,f,c
  7359   0023B2  5020               	movf	(___fldiv@a+3)^0,w,c
  7360   0023B4  5A28               	subwfb	(___fldiv@rem+3)^0,f,c
  7361   0023B6                     l2851:
  7362   0023B6  2A31               	incf	___fldiv@aexp^0,f,c
  7363   0023B8                     l913:
  7364   0023B8  0E19               	movlw	25
  7365   0023BA  6431               	cpfsgt	___fldiv@aexp^0,c
  7366   0023BC  EFE2  F011         	goto	u2721
  7367   0023C0  EFE4  F011         	goto	u2720
  7368   0023C4                     u2721:
  7369   0023C4  EFA4  F011         	goto	l2837
  7370   0023C8                     u2720:
  7371   0023C8  5025               	movf	___fldiv@rem^0,w,c
  7372   0023CA  1026               	iorwf	(___fldiv@rem+1)^0,w,c
  7373   0023CC  1027               	iorwf	(___fldiv@rem+2)^0,w,c
  7374   0023CE  1028               	iorwf	(___fldiv@rem+3)^0,w,c
  7375   0023D0  B4D8               	btfsc	status,2,c
  7376   0023D2  EFED  F011         	goto	u2731
  7377   0023D6  EFEF  F011         	goto	u2730
  7378   0023DA                     u2731:
  7379   0023DA  EF07  F012         	goto	l2863
  7380   0023DE                     u2730:
  7381   0023DE  802C               	bsf	___fldiv@grs^0,0,c
  7382   0023E0  EF07  F012         	goto	l2863
  7383   0023E4                     l2857:
  7384   0023E4  90D8               	bcf	status,0,c
  7385   0023E6  3619               	rlcf	___fldiv@b^0,f,c
  7386   0023E8  361A               	rlcf	(___fldiv@b+1)^0,f,c
  7387   0023EA  361B               	rlcf	(___fldiv@b+2)^0,f,c
  7388   0023EC  361C               	rlcf	(___fldiv@b+3)^0,f,c
  7389   0023EE  AE2F               	btfss	(___fldiv@grs+3)^0,7,c
  7390   0023F0  EFFC  F011         	goto	u2741
  7391   0023F4  EFFE  F011         	goto	u2740
  7392   0023F8                     u2741:
  7393   0023F8  EFFF  F011         	goto	l922
  7394   0023FC                     u2740:
  7395   0023FC  8019               	bsf	___fldiv@b^0,0,c
  7396   0023FE                     l922:
  7397   0023FE  90D8               	bcf	status,0,c
  7398   002400  362C               	rlcf	___fldiv@grs^0,f,c
  7399   002402  362D               	rlcf	(___fldiv@grs+1)^0,f,c
  7400   002404  362E               	rlcf	(___fldiv@grs+2)^0,f,c
  7401   002406  362F               	rlcf	(___fldiv@grs+3)^0,f,c
  7402   002408  062A               	decf	___fldiv@new_exp^0,f,c
  7403   00240A  A0D8               	btfss	status,0,c
  7404   00240C  062B               	decf	(___fldiv@new_exp+1)^0,f,c
  7405   00240E                     l2863:
  7406   00240E  AE1B               	btfss	(___fldiv@b+2)^0,7,c
  7407   002410  EF0C  F012         	goto	u2751
  7408   002414  EF0E  F012         	goto	u2750
  7409   002418                     u2751:
  7410   002418  EFF2  F011         	goto	l2857
  7411   00241C                     u2750:
  7412   00241C  0E00               	movlw	0
  7413   00241E  6E31               	movwf	___fldiv@aexp^0,c
  7414   002420  AE2F               	btfss	(___fldiv@grs+3)^0,7,c
  7415   002422  EF15  F012         	goto	u2761
  7416   002426  EF17  F012         	goto	u2760
  7417   00242A                     u2761:
  7418   00242A  EF3B  F012         	goto	l924
  7419   00242E                     u2760:
  7420   00242E  0EFF               	movlw	255
  7421   002430  142C               	andwf	___fldiv@grs^0,w,c
  7422   002432  6E21               	movwf	??___fldiv^0,c
  7423   002434  0EFF               	movlw	255
  7424   002436  142D               	andwf	(___fldiv@grs+1)^0,w,c
  7425   002438  6E22               	movwf	(??___fldiv+1)^0,c
  7426   00243A  0EFF               	movlw	255
  7427   00243C  142E               	andwf	(___fldiv@grs+2)^0,w,c
  7428   00243E  6E23               	movwf	(??___fldiv+2)^0,c
  7429   002440  0E7F               	movlw	127
  7430   002442  142F               	andwf	(___fldiv@grs+3)^0,w,c
  7431   002444  6E24               	movwf	(??___fldiv+3)^0,c
  7432   002446  5021               	movf	??___fldiv^0,w,c
  7433   002448  1022               	iorwf	(??___fldiv+1)^0,w,c
  7434   00244A  1023               	iorwf	(??___fldiv+2)^0,w,c
  7435   00244C  1024               	iorwf	(??___fldiv+3)^0,w,c
  7436   00244E  B4D8               	btfsc	status,2,c
  7437   002450  EF2C  F012         	goto	u2771
  7438   002454  EF2E  F012         	goto	u2770
  7439   002458                     u2771:
  7440   002458  EF32  F012         	goto	l925
  7441   00245C                     u2770:
  7442   00245C                     l2871:
  7443   00245C  0E01               	movlw	1
  7444   00245E  6E31               	movwf	___fldiv@aexp^0,c
  7445   002460  EF3B  F012         	goto	l924
  7446   002464                     l925:
  7447   002464  A019               	btfss	___fldiv@b^0,0,c
  7448   002466  EF37  F012         	goto	u2781
  7449   00246A  EF39  F012         	goto	u2780
  7450   00246E                     u2781:
  7451   00246E  EF3B  F012         	goto	l924
  7452   002472                     u2780:
  7453   002472  EF2E  F012         	goto	l2871
  7454   002476                     l924:
  7455   002476  5031               	movf	___fldiv@aexp^0,w,c
  7456   002478  B4D8               	btfsc	status,2,c
  7457   00247A  EF41  F012         	goto	u2791
  7458   00247E  EF43  F012         	goto	u2790
  7459   002482                     u2791:
  7460   002482  EF67  F012         	goto	l2883
  7461   002486                     u2790:
  7462   002486  0E01               	movlw	1
  7463   002488  2619               	addwf	___fldiv@b^0,f,c
  7464   00248A  0E00               	movlw	0
  7465   00248C  221A               	addwfc	(___fldiv@b+1)^0,f,c
  7466   00248E  221B               	addwfc	(___fldiv@b+2)^0,f,c
  7467   002490  221C               	addwfc	(___fldiv@b+3)^0,f,c
  7468   002492  A01C               	btfss	(___fldiv@b+3)^0,0,c
  7469   002494  EF4E  F012         	goto	u2801
  7470   002498  EF50  F012         	goto	u2800
  7471   00249C                     u2801:
  7472   00249C  EF67  F012         	goto	l2883
  7473   0024A0                     u2800:
  7474   0024A0  C019  F021         	movff	___fldiv@b,??___fldiv
  7475   0024A4  C01A  F022         	movff	___fldiv@b+1,??___fldiv+1
  7476   0024A8  C01B  F023         	movff	___fldiv@b+2,??___fldiv+2
  7477   0024AC  C01C  F024         	movff	___fldiv@b+3,??___fldiv+3
  7478   0024B0  3424               	rlcf	(??___fldiv+3)^0,w,c
  7479   0024B2  3224               	rrcf	(??___fldiv+3)^0,f,c
  7480   0024B4  3223               	rrcf	(??___fldiv+2)^0,f,c
  7481   0024B6  3222               	rrcf	(??___fldiv+1)^0,f,c
  7482   0024B8  3221               	rrcf	??___fldiv^0,f,c
  7483   0024BA  C021  F019         	movff	??___fldiv,___fldiv@b
  7484   0024BE  C022  F01A         	movff	??___fldiv+1,___fldiv@b+1
  7485   0024C2  C023  F01B         	movff	??___fldiv+2,___fldiv@b+2
  7486   0024C6  C024  F01C         	movff	??___fldiv+3,___fldiv@b+3
  7487   0024CA  4A2A               	infsnz	___fldiv@new_exp^0,f,c
  7488   0024CC  2A2B               	incf	(___fldiv@new_exp+1)^0,f,c
  7489   0024CE                     l2883:
  7490   0024CE  BE2B               	btfsc	(___fldiv@new_exp+1)^0,7,c
  7491   0024D0  EF72  F012         	goto	u2811
  7492   0024D4  502B               	movf	(___fldiv@new_exp+1)^0,w,c
  7493   0024D6  E108               	bnz	u2810
  7494   0024D8  282A               	incf	___fldiv@new_exp^0,w,c
  7495   0024DA  A0D8               	btfss	status,0,c
  7496   0024DC  EF72  F012         	goto	u2811
  7497   0024E0  EF74  F012         	goto	u2810
  7498   0024E4                     u2811:
  7499   0024E4  EF7F  F012         	goto	l2887
  7500   0024E8                     u2810:
  7501   0024E8  0E00               	movlw	0
  7502   0024EA  6E2B               	movwf	(___fldiv@new_exp+1)^0,c
  7503   0024EC  682A               	setf	___fldiv@new_exp^0,c
  7504   0024EE  0E00               	movlw	0
  7505   0024F0  6E19               	movwf	___fldiv@b^0,c
  7506   0024F2  0E00               	movlw	0
  7507   0024F4  6E1A               	movwf	(___fldiv@b+1)^0,c
  7508   0024F6  0E00               	movlw	0
  7509   0024F8  6E1B               	movwf	(___fldiv@b+2)^0,c
  7510   0024FA  0E00               	movlw	0
  7511   0024FC  6E1C               	movwf	(___fldiv@b+3)^0,c
  7512   0024FE                     l2887:
  7513   0024FE  BE2B               	btfsc	(___fldiv@new_exp+1)^0,7,c
  7514   002500  EF8C  F012         	goto	u2820
  7515   002504  502B               	movf	(___fldiv@new_exp+1)^0,w,c
  7516   002506  E106               	bnz	u2821
  7517   002508  042A               	decf	___fldiv@new_exp^0,w,c
  7518   00250A  B0D8               	btfsc	status,0,c
  7519   00250C  EF8A  F012         	goto	u2821
  7520   002510  EF8C  F012         	goto	u2820
  7521   002514                     u2821:
  7522   002514  EF9A  F012         	goto	l2891
  7523   002518                     u2820:
  7524   002518  0E00               	movlw	0
  7525   00251A  6E2B               	movwf	(___fldiv@new_exp+1)^0,c
  7526   00251C  0E00               	movlw	0
  7527   00251E  6E2A               	movwf	___fldiv@new_exp^0,c
  7528   002520  0E00               	movlw	0
  7529   002522  6E19               	movwf	___fldiv@b^0,c
  7530   002524  0E00               	movlw	0
  7531   002526  6E1A               	movwf	(___fldiv@b+1)^0,c
  7532   002528  0E00               	movlw	0
  7533   00252A  6E1B               	movwf	(___fldiv@b+2)^0,c
  7534   00252C  0E00               	movlw	0
  7535   00252E  6E1C               	movwf	(___fldiv@b+3)^0,c
  7536   002530  0E00               	movlw	0
  7537   002532  6E29               	movwf	___fldiv@sign^0,c
  7538   002534                     l2891:
  7539   002534  C02A  F030         	movff	___fldiv@new_exp,___fldiv@bexp
  7540   002538  A030               	btfss	___fldiv@bexp^0,0,c
  7541   00253A  EFA1  F012         	goto	u2831
  7542   00253E  EFA3  F012         	goto	u2830
  7543   002542                     u2831:
  7544   002542  EFA6  F012         	goto	l2897
  7545   002546                     u2830:
  7546   002546  8E1B               	bsf	(___fldiv@b+2)^0,7,c
  7547   002548  EFA7  F012         	goto	l2899
  7548   00254C                     l2897:
  7549   00254C  9E1B               	bcf	(___fldiv@b+2)^0,7,c
  7550   00254E                     l2899:
  7551   00254E  90D8               	bcf	status,0,c
  7552   002550  3030               	rrcf	___fldiv@bexp^0,w,c
  7553   002552  6E1C               	movwf	(___fldiv@b+3)^0,c
  7554   002554  EF5D  F011         	goto	l2813
  7555   002558                     l911:
  7556   002558  0012               	return		;funcret
  7557   00255A                     __end_of___fldiv:
  7558                           	callstack 0
  7559                           
  7560 ;; *************** function _HighISR *****************
  7561 ;; Defined at:
  7562 ;;		line 59 in file "interrupts.c"
  7563 ;; Parameters:    Size  Location     Type
  7564 ;;		None
  7565 ;; Auto vars:     Size  Location     Type
  7566 ;;		None
  7567 ;; Return value:  Size  Location     Type
  7568 ;;                  1    wreg      void 
  7569 ;; Registers used:
  7570 ;;		None
  7571 ;; Tracked objects:
  7572 ;;		On entry : 0/0
  7573 ;;		On exit  : 0/0
  7574 ;;		Unchanged: 0/0
  7575 ;; Data sizes:     COMRAM   BANK0   BANK1   BANK2   BANK3   BANK4   BANK5   BANK6   BANK7   BANK8   BANK9  BANK10  BANK1
      +1  BANK12  BANK13
  7576 ;;      Params:         0       0       0       0       0       0       0       0       0       0       0       0       
      +0       0       0
  7577 ;;      Locals:         0       0       0       0       0       0       0       0       0       0       0       0       
      +0       0       0
  7578 ;;      Temps:          0       0       0       0       0       0       0       0       0       0       0       0       
      +0       0       0
  7579 ;;      Totals:         0       0       0       0       0       0       0       0       0       0       0       0       
      +0       0       0
  7580 ;;Total ram usage:        0 bytes
  7581 ;; Hardware stack levels used: 1
  7582 ;; This function calls:
  7583 ;;		Nothing
  7584 ;; This function is called by:
  7585 ;;		Interrupt level 2
  7586 ;; This function uses a non-reentrant model
  7587 ;;
  7588                           
  7589                           	psect	intcode
  7590   000008                     __pintcode:
  7591                           	callstack 0
  7592   000008                     _HighISR:
  7593                           	callstack 22
  7594                           
  7595                           ;incstack = 0
  7596   000008  825F               	bsf	int$flags,1,c	;set compiler interrupt flag (level 2)
  7597   00000A  925F               	bcf	int$flags,1,c	;clear compiler interrupt flag (level 2)
  7598   00000C  0011               	retfie		f
  7599   00000E                     __end_of_HighISR:
  7600                           	callstack 0
  7601                           
  7602                           	psect	rparam
  7603   000000                     
  7604                           	psect	temp
  7605   00005F                     btemp:
  7606                           	callstack 0
  7607   00005F                     	ds	1
  7608   000000                     int$flags	set	btemp
  7609   000000                     wtemp8	set	btemp+1
  7610   000000                     ttemp5	set	btemp+1
  7611   000000                     ttemp6	set	btemp+4
  7612   000000                     ttemp7	set	btemp+8
  7613                           
  7614                           	psect	idloc
  7615                           
  7616                           ;Config register IDLOC0 @ 0x200000
  7617                           ;	unspecified, using default values
  7618   200000                     	org	2097152
  7619   200000  0FFF               	dw	4095
  7620                           
  7621                           ;Config register IDLOC1 @ 0x200002
  7622                           ;	unspecified, using default values
  7623   200002                     	org	2097154
  7624   200002  0FFF               	dw	4095
  7625                           
  7626                           ;Config register IDLOC2 @ 0x200004
  7627                           ;	unspecified, using default values
  7628   200004                     	org	2097156
  7629   200004  0FFF               	dw	4095
  7630                           
  7631                           ;Config register IDLOC3 @ 0x200006
  7632                           ;	unspecified, using default values
  7633   200006                     	org	2097158
  7634   200006  0FFF               	dw	4095
  7635                           
  7636                           ;Config register IDLOC4 @ 0x200008
  7637                           ;	unspecified, using default values
  7638   200008                     	org	2097160
  7639   200008  0FFF               	dw	4095
  7640                           
  7641                           ;Config register IDLOC5 @ 0x20000A
  7642                           ;	unspecified, using default values
  7643   20000A                     	org	2097162
  7644   20000A  0FFF               	dw	4095
  7645                           
  7646                           ;Config register IDLOC6 @ 0x20000C
  7647                           ;	unspecified, using default values
  7648   20000C                     	org	2097164
  7649   20000C  0FFF               	dw	4095
  7650                           
  7651                           ;Config register IDLOC7 @ 0x20000E
  7652                           ;	unspecified, using default values
  7653   20000E                     	org	2097166
  7654   20000E  0FFF               	dw	4095
  7655                           
  7656                           	psect	config
  7657                           
  7658                           ;Config register CONFIG1L @ 0x300000
  7659                           ;	External Oscillator mode Selection bits
  7660                           ;	FEXTOSC = HS, HS (crystal oscillator) above 8 MHz; PFM set to high power
  7661                           ;	Power-up default value for COSC bits
  7662                           ;	RSTOSC = EXTOSC_4PLL, EXTOSC with 4x PLL, with EXTOSC operating per FEXTOSC bits
  7663   300000                     	org	3145728
  7664   300000  AA                 	db	170
  7665                           
  7666                           ;Config register CONFIG1H @ 0x300001
  7667                           ;	unspecified, using default values
  7668                           ;	Clock Out Enable bit
  7669                           ;	CLKOUTEN = 0x1, unprogrammed default
  7670                           ;	Clock Switch Enable bit
  7671                           ;	CSWEN = 0x1, unprogrammed default
  7672                           ;	Fail-Safe Clock Monitor Enable bit
  7673                           ;	FCMEN = 0x1, unprogrammed default
  7674   300001                     	org	3145729
  7675   300001  FF                 	db	255
  7676                           
  7677                           ;Config register CONFIG2L @ 0x300002
  7678                           ;	unspecified, using default values
  7679                           ;	Master Clear Enable bit
  7680                           ;	MCLRE = 0x1, unprogrammed default
  7681                           ;	Power-up Timer Enable bit
  7682                           ;	PWRTE = 0x1, unprogrammed default
  7683                           ;	Low-power BOR enable bit
  7684                           ;	LPBOREN = 0x1, unprogrammed default
  7685                           ;	Brown-out Reset Enable bits
  7686                           ;	BOREN = 0x3, unprogrammed default
  7687   300002                     	org	3145730
  7688   300002  FF                 	db	255
  7689                           
  7690                           ;Config register CONFIG2H @ 0x300003
  7691                           ;	unspecified, using default values
  7692                           ;	Brown Out Reset Voltage selection bits
  7693                           ;	BORV = 0x3, unprogrammed default
  7694                           ;	ZCD Disable bit
  7695                           ;	ZCD = 0x1, unprogrammed default
  7696                           ;	PPSLOCK bit One-Way Set Enable bit
  7697                           ;	PPS1WAY = 0x1, unprogrammed default
  7698                           ;	Stack Full/Underflow Reset Enable bit
  7699                           ;	STVREN = 0x1, unprogrammed default
  7700                           ;	Debugger Enable bit
  7701                           ;	DEBUG = 0x1, unprogrammed default
  7702                           ;	Extended Instruction Set Enable bit
  7703                           ;	XINST = 0x1, unprogrammed default
  7704   300003                     	org	3145731
  7705   300003  FF                 	db	255
  7706                           
  7707                           ;Config register CONFIG3L @ 0x300004
  7708                           ;	WDT Period Select bits
  7709                           ;	WDTCPS = 0x1F, unprogrammed default
  7710                           ;	WDT operating mode
  7711                           ;	WDTE = OFF, WDT Disabled
  7712   300004                     	org	3145732
  7713   300004  9F                 	db	159
  7714                           
  7715                           ;Config register CONFIG3H @ 0x300005
  7716                           ;	unspecified, using default values
  7717                           ;	WDT Window Select bits
  7718                           ;	WDTCWS = 0x7, unprogrammed default
  7719                           ;	WDT input clock selector
  7720                           ;	WDTCCS = 0x7, unprogrammed default
  7721   300005                     	org	3145733
  7722   300005  FF                 	db	255
  7723                           
  7724                           ;Config register CONFIG4L @ 0x300006
  7725                           ;	unspecified, using default values
  7726                           ;	Write Protection Block 0
  7727                           ;	WRT0 = 0x1, unprogrammed default
  7728                           ;	Write Protection Block 1
  7729                           ;	WRT1 = 0x1, unprogrammed default
  7730                           ;	Write Protection Block 2
  7731                           ;	WRT2 = 0x1, unprogrammed default
  7732                           ;	Write Protection Block 3
  7733                           ;	WRT3 = 0x1, unprogrammed default
  7734                           ;	Write Protection Block 3
  7735                           ;	WRT4 = 0x1, unprogrammed default
  7736                           ;	Write Protection Block 3
  7737                           ;	WRT5 = 0x1, unprogrammed default
  7738                           ;	Write Protection Block 3
  7739                           ;	WRT6 = 0x1, unprogrammed default
  7740                           ;	Write Protection Block 3
  7741                           ;	WRT7 = 0x1, unprogrammed default
  7742   300006                     	org	3145734
  7743   300006  FF                 	db	255
  7744                           
  7745                           ;Config register CONFIG4H @ 0x300007
  7746                           ;	unspecified, using default values
  7747                           ;	Configuration Register Write Protection bit
  7748                           ;	WRTC = 0x1, unprogrammed default
  7749                           ;	Boot Block Write Protection bit
  7750                           ;	WRTB = 0x1, unprogrammed default
  7751                           ;	Data EEPROM Write Protection bit
  7752                           ;	WRTD = 0x1, unprogrammed default
  7753                           ;	Scanner Enable bit
  7754                           ;	SCANE = 0x1, unprogrammed default
  7755                           ;	Low Voltage Programming Enable bit
  7756                           ;	LVP = 0x1, unprogrammed default
  7757   300007                     	org	3145735
  7758   300007  FF                 	db	255
  7759                           
  7760                           ;Config register CONFIG5L @ 0x300008
  7761                           ;	unspecified, using default values
  7762                           ;	UserNVM Program Memory Code Protection bit
  7763                           ;	CP = 0x1, unprogrammed default
  7764                           ;	DataNVM Memory Code Protection bit
  7765                           ;	CPD = 0x1, unprogrammed default
  7766   300008                     	org	3145736
  7767   300008  FF                 	db	255
  7768                           
  7769                           ;Config register CONFIG5H @ 0x300009
  7770                           ;	unspecified, using default values
  7771   300009                     	org	3145737
  7772   300009  FF                 	db	255
  7773                           
  7774                           ;Config register CONFIG6L @ 0x30000A
  7775                           ;	unspecified, using default values
  7776                           ;	Table Read Protection Block 0
  7777                           ;	EBTR0 = 0x1, unprogrammed default
  7778                           ;	Table Read Protection Block 1
  7779                           ;	EBTR1 = 0x1, unprogrammed default
  7780                           ;	Table Read Protection Block 2
  7781                           ;	EBTR2 = 0x1, unprogrammed default
  7782                           ;	Table Read Protection Block 3
  7783                           ;	EBTR3 = 0x1, unprogrammed default
  7784                           ;	Table Read Protection Block 4
  7785                           ;	EBTR4 = 0x1, unprogrammed default
  7786                           ;	Table Read Protection Block 5
  7787                           ;	EBTR5 = 0x1, unprogrammed default
  7788                           ;	Table Read Protection Block 6
  7789                           ;	EBTR6 = 0x1, unprogrammed default
  7790                           ;	Table Read Protection Block 7
  7791                           ;	EBTR7 = 0x1, unprogrammed default
  7792   30000A                     	org	3145738
  7793   30000A  FF                 	db	255
  7794                           
  7795                           ;Config register CONFIG6H @ 0x30000B
  7796                           ;	unspecified, using default values
  7797                           ;	Boot Block Table Read Protection bit
  7798                           ;	EBTRB = 0x1, unprogrammed default
  7799   30000B                     	org	3145739
  7800   30000B  FF                 	db	255
  7801                           tosu	equ	0xFFF
  7802                           tosh	equ	0xFFE
  7803                           tosl	equ	0xFFD
  7804                           stkptr	equ	0xFFC
  7805                           pclatu	equ	0xFFB
  7806                           pclath	equ	0xFFA
  7807                           pcl	equ	0xFF9
  7808                           tblptru	equ	0xFF8
  7809                           tblptrh	equ	0xFF7
  7810                           tblptrl	equ	0xFF6
  7811                           tablat	equ	0xFF5
  7812                           prodh	equ	0xFF4
  7813                           prodl	equ	0xFF3
  7814                           indf0	equ	0xFEF
  7815                           postinc0	equ	0xFEE
  7816                           postdec0	equ	0xFED
  7817                           preinc0	equ	0xFEC
  7818                           plusw0	equ	0xFEB
  7819                           fsr0h	equ	0xFEA
  7820                           fsr0l	equ	0xFE9
  7821                           wreg	equ	0xFE8
  7822                           indf1	equ	0xFE7
  7823                           postinc1	equ	0xFE6
  7824                           postdec1	equ	0xFE5
  7825                           preinc1	equ	0xFE4
  7826                           plusw1	equ	0xFE3
  7827                           fsr1h	equ	0xFE2
  7828                           fsr1l	equ	0xFE1
  7829                           bsr	equ	0xFE0
  7830                           indf2	equ	0xFDF
  7831                           postinc2	equ	0xFDE
  7832                           postdec2	equ	0xFDD
  7833                           preinc2	equ	0xFDC
  7834                           plusw2	equ	0xFDB
  7835                           fsr2h	equ	0xFDA
  7836                           fsr2l	equ	0xFD9
  7837                           status	equ	0xFD8

Data Sizes:
    Strings     78
    Constant    0
    Data        3
    BSS         156
    Persistent  0
    Stack       0

Auto Spaces:
    Space          Size  Autos    Used
    COMRAM           94     88      94
    BANK0           160    134     151
    BANK1           256      0     136
    BANK2           256      0       0
    BANK3           256      0       0
    BANK4           256      0       0
    BANK5           256      0       0
    BANK6           256      0       0
    BANK7           256      0       0
    BANK8           256      0       0
    BANK9           256      0       0
    BANK10          256      0       0
    BANK11          256      0       0
    BANK12          256      0       0
    BANK13          234      0       0

Pointer List with Targets:

    fputs@s	PTR const unsigned char  size(2) Largest target is 32
		 -> dbuf(BANK1[32]), 

    fputs@fp	PTR struct _IO_FILE size(2) Largest target is 11
		 -> sprintf@f(BANK0[11]), 

    fputc@fp...source	PTR const unsigned char  size(2) Largest target is 0

    fputc@fp...buffer	PTR unsigned char  size(2) Largest target is 0

    fputc@fp	PTR struct _IO_FILE size(2) Largest target is 11
		 -> sprintf@f(BANK0[11]), 

    vfprintf@ap	PTR PTR void  size(2) Largest target is 2
		 -> sprintf@ap(BANK0[2]), 

    vfprintf@fp	PTR struct _IO_FILE size(2) Largest target is 11
		 -> sprintf@f(BANK0[11]), 

    vfprintf@fmt	PTR const unsigned char  size(2) Largest target is 44
		 -> STR_2(CODE[34]), STR_1(CODE[44]), 

    vfprintf@cfmt	PTR unsigned char  size(2) Largest target is 44
		 -> STR_2(CODE[34]), STR_1(CODE[44]), 

    vfpfcnvrt@fp	PTR struct _IO_FILE size(2) Largest target is 11
		 -> sprintf@f(BANK0[11]), 

    vfpfcnvrt@ap	PTR PTR void  size(2) Largest target is 2
		 -> sprintf@ap(BANK0[2]), 

    vfpfcnvrt@cp	PTR unsigned char  size(2) Largest target is 44
		 -> STR_2(CODE[34]), STR_1(CODE[44]), 

    vfpfcnvrt@fmt	PTR PTR unsigned char  size(2) Largest target is 2
		 -> vfprintf@cfmt(COMRAM[2]), 

    S1415$vp	PTR void  size(2) Largest target is 0

    convarg.vp	PTR void  size(2) Largest target is 0

    dtoa@fp	PTR struct _IO_FILE size(2) Largest target is 11
		 -> sprintf@f(BANK0[11]), 

    pad@buf	PTR unsigned char  size(2) Largest target is 32
		 -> dbuf(BANK1[32]), 

    pad@fp	PTR struct _IO_FILE size(2) Largest target is 11
		 -> sprintf@f(BANK0[11]), 

    sprintf@fmt	PTR const unsigned char  size(2) Largest target is 44
		 -> STR_2(CODE[34]), STR_1(CODE[44]), 

    sprintf@s	PTR unsigned char  size(2) Largest target is 100
		 -> main@buf(BANK0[100]), 

    sprintf@ap	PTR void [1] size(2) Largest target is 2
		 -> ?_sprintf(BANK0[2]), 

    S1362$source	PTR const unsigned char  size(2) Largest target is 0

    f...source	PTR const unsigned char  size(2) Largest target is 0

    S1362$buffer	PTR unsigned char  size(2) Largest target is 0

    f...buffer	PTR unsigned char  size(2) Largest target is 0

    sendStringSerial4@string	PTR unsigned char  size(2) Largest target is 100
		 -> main@buf(BANK0[100]), 

    Colour_decider@rel	PTR struct RGB_rel size(2) Largest target is 12
		 -> rel(BANK1[12]), 

    Colour_decider@vals	PTR struct RGB size(2) Largest target is 8
		 -> vals(BANK0[8]), 

    colour_rel@rel	PTR struct RGB_rel size(2) Largest target is 12
		 -> rel(BANK1[12]), 

    colour_rel@vals	PTR struct RGB size(2) Largest target is 8
		 -> vals(BANK0[8]), 

    readColours@vals	PTR struct RGB size(2) Largest target is 8
		 -> vals(BANK0[8]), 


Critical Paths under _main in COMRAM

    _sprintf->_vfprintf
    _vfprintf->_vfpfcnvrt
    _vfpfcnvrt->_dtoa
    _dtoa->_pad
    _pad->_fputs
    _fputs->_fputc
    _abs->___aomod
    _sendStringSerial4->_sendCharSerial4
    _readColours->_color_read_Blue
    _readColours->_color_read_Green
    _readColours->_color_read_Red
    _readColours->_color_read_lum
    _color_read_lum->_I2C_2_Master_Read
    _color_read_Red->_I2C_2_Master_Read
    _color_read_Green->_I2C_2_Master_Read
    _color_read_Blue->_I2C_2_Master_Read
    _I2C_2_Master_RepStart->_I2C_2_Master_Idle
    _I2C_2_Master_Read->_I2C_2_Master_Idle
    _colour_rel->___fldiv
    _color_click_init->_color_writetoaddr
    _color_writetoaddr->_I2C_2_Master_Write
    _I2C_2_Master_Write->_I2C_2_Master_Idle
    _I2C_2_Master_Stop->_I2C_2_Master_Idle
    _I2C_2_Master_Start->_I2C_2_Master_Idle
    _Colour_decider->___flmul
    ___flsub->___fladd
    ___flmul->___fldiv
    ___fleq->___flsub
    ___fldiv->___flsub

Critical Paths under _HighISR in COMRAM

    None.

Critical Paths under _main in BANK0

    _main->_Colour_decider

Critical Paths under _HighISR in BANK0

    None.

Critical Paths under _main in BANK1

    None.

Critical Paths under _HighISR in BANK1

    None.

Critical Paths under _main in BANK2

    None.

Critical Paths under _HighISR in BANK2

    None.

Critical Paths under _main in BANK3

    None.

Critical Paths under _HighISR in BANK3

    None.

Critical Paths under _main in BANK4

    None.

Critical Paths under _HighISR in BANK4

    None.

Critical Paths under _main in BANK5

    None.

Critical Paths under _HighISR in BANK5

    None.

Critical Paths under _main in BANK6

    None.

Critical Paths under _HighISR in BANK6

    None.

Critical Paths under _main in BANK7

    None.

Critical Paths under _HighISR in BANK7

    None.

Critical Paths under _main in BANK8

    None.

Critical Paths under _HighISR in BANK8

    None.

Critical Paths under _main in BANK9

    None.

Critical Paths under _HighISR in BANK9

    None.

Critical Paths under _main in BANK10

    None.

Critical Paths under _HighISR in BANK10

    None.

Critical Paths under _main in BANK11

    None.

Critical Paths under _HighISR in BANK11

    None.

Critical Paths under _main in BANK12

    None.

Critical Paths under _HighISR in BANK12

    None.

Critical Paths under _main in BANK13

    None.

Critical Paths under _HighISR in BANK13

    None.

Call Graph Tables:

 ---------------------------------------------------------------------------------
 (Depth) Function   	        Calls       Base Space   Used Autos Params    Refs
 ---------------------------------------------------------------------------------
 (0) _main                                               102   102      0   34555
                                             32 BANK0    102   102      0
                     _Colour_decider
                  _I2C_2_Master_Init
                    _Interrupts_init
                   _color_click_init
                         _colour_rel
                         _initUSART4
                        _readColours
                  _sendStringSerial4
                            _sprintf
 ---------------------------------------------------------------------------------
 (1) _sprintf                                             29    15     14    5722
                                              0 BANK0     27    13     14
                           _vfprintf
 ---------------------------------------------------------------------------------
 (2) _vfprintf                                             8     2      6    5219
                                             80 COMRAM     8     2      6
                          _vfpfcnvrt
 ---------------------------------------------------------------------------------
 (3) _vfpfcnvrt                                           23    17      6    4869
                                             62 COMRAM    18    12      6
                               _dtoa
                              _fputc
 ---------------------------------------------------------------------------------
 (4) _dtoa                                                35    25     10    3649
                                             27 COMRAM    35    25     10
                            ___aodiv
                            ___aomod
                                _abs
                                _pad
 ---------------------------------------------------------------------------------
 (5) _pad                                                 11     5      6    1999
                                             16 COMRAM    11     5      6
                              _fputc
                              _fputs
 ---------------------------------------------------------------------------------
 (6) _fputs                                                7     3      4     931
                                              9 COMRAM     7     3      4
                              _fputc
 ---------------------------------------------------------------------------------
 (4) _fputc                                                9     5      4     682
                                              0 COMRAM     9     5      4
                              _putch
 ---------------------------------------------------------------------------------
 (5) _putch                                                1     1      0       0
 ---------------------------------------------------------------------------------
 (5) _abs                                                  4     2      2     142
                                             18 COMRAM     4     2      2
                            ___aomod (ARG)
 ---------------------------------------------------------------------------------
 (5) ___aomod                                             18     2     16     448
                                              0 COMRAM    18     2     16
 ---------------------------------------------------------------------------------
 (5) ___aodiv                                             26    10     16     452
                                              0 COMRAM    26    10     16
 ---------------------------------------------------------------------------------
 (1) _sendStringSerial4                                    2     0      2     143
                                              1 COMRAM     2     0      2
                    _sendCharSerial4
 ---------------------------------------------------------------------------------
 (2) _sendCharSerial4                                      1     1      0      22
                                              0 COMRAM     1     1      0
 ---------------------------------------------------------------------------------
 (1) _readColours                                          2     0      2     616
                                             11 COMRAM     2     0      2
                    _color_read_Blue
                   _color_read_Green
                     _color_read_Red
                     _color_read_lum
 ---------------------------------------------------------------------------------
 (2) _color_read_lum                                       7     5      2     113
                                              4 COMRAM     7     5      2
                  _I2C_2_Master_Read
              _I2C_2_Master_RepStart
                 _I2C_2_Master_Start
                  _I2C_2_Master_Stop
                 _I2C_2_Master_Write
 ---------------------------------------------------------------------------------
 (2) _color_read_Red                                       7     5      2     113
                                              4 COMRAM     7     5      2
                  _I2C_2_Master_Read
              _I2C_2_Master_RepStart
                 _I2C_2_Master_Start
                  _I2C_2_Master_Stop
                 _I2C_2_Master_Write
 ---------------------------------------------------------------------------------
 (2) _color_read_Green                                     7     5      2     113
                                              4 COMRAM     7     5      2
                  _I2C_2_Master_Read
              _I2C_2_Master_RepStart
                 _I2C_2_Master_Start
                  _I2C_2_Master_Stop
                 _I2C_2_Master_Write
 ---------------------------------------------------------------------------------
 (2) _color_read_Blue                                      7     5      2     113
                                              4 COMRAM     7     5      2
                  _I2C_2_Master_Read
              _I2C_2_Master_RepStart
                 _I2C_2_Master_Start
                  _I2C_2_Master_Stop
                 _I2C_2_Master_Write
 ---------------------------------------------------------------------------------
 (3) _I2C_2_Master_RepStart                                0     0      0       0
                  _I2C_2_Master_Idle
 ---------------------------------------------------------------------------------
 (3) _I2C_2_Master_Read                                    3     3      0      45
                                              1 COMRAM     3     3      0
                  _I2C_2_Master_Idle
 ---------------------------------------------------------------------------------
 (1) _initUSART4                                           0     0      0       0
 ---------------------------------------------------------------------------------
 (1) _colour_rel                                          28    24      4    7688
                                             49 COMRAM    28    24      4
                            ___fladd
                            ___fldiv
                           ___xxtofl
 ---------------------------------------------------------------------------------
 (1) _color_click_init                                     1     1      0     370
                                              4 COMRAM     1     1      0
                  _I2C_2_Master_Init
                  _color_writetoaddr
 ---------------------------------------------------------------------------------
 (2) _color_writetoaddr                                    2     1      1     370
                                              2 COMRAM     2     1      1
                 _I2C_2_Master_Start
                  _I2C_2_Master_Stop
                 _I2C_2_Master_Write
 ---------------------------------------------------------------------------------
 (3) _I2C_2_Master_Write                                   1     1      0      22
                                              1 COMRAM     1     1      0
                  _I2C_2_Master_Idle
 ---------------------------------------------------------------------------------
 (3) _I2C_2_Master_Stop                                    0     0      0       0
                  _I2C_2_Master_Idle
 ---------------------------------------------------------------------------------
 (3) _I2C_2_Master_Start                                   0     0      0       0
                  _I2C_2_Master_Idle
 ---------------------------------------------------------------------------------
 (4) _I2C_2_Master_Idle                                    1     1      0       0
                                              0 COMRAM     1     1      0
 ---------------------------------------------------------------------------------
 (2) _I2C_2_Master_Init                                    0     0      0       0
 ---------------------------------------------------------------------------------
 (1) _Interrupts_init                                      0     0      0       0
 ---------------------------------------------------------------------------------
 (1) _Colour_decider                                      38    34      4   19921
                                             74 COMRAM     6     2      4
                                              0 BANK0     32    32      0
                            ___fladd
                            ___fldiv
                             ___fleq
                             ___flge
                            ___flmul
                            ___flsub
                           ___xxtofl
 ---------------------------------------------------------------------------------
 (2) ___xxtofl                                            14    10      4     665
                                              0 COMRAM    14    10      4
 ---------------------------------------------------------------------------------
 (2) ___flsub                                              8     0      8    5321
                                             16 COMRAM     8     0      8
                            ___fladd
 ---------------------------------------------------------------------------------
 (2) ___fladd                                             16     8      8    4086
                                              0 COMRAM    16     8      8
 ---------------------------------------------------------------------------------
 (2) ___flmul                                             25    17      8    2048
                                             49 COMRAM    25    17      8
                            ___fladd (ARG)
                            ___fldiv (ARG)
                            ___flsub (ARG)
 ---------------------------------------------------------------------------------
 (2) ___flge                                              12     4      8    3604
                                              0 COMRAM    12     4      8
 ---------------------------------------------------------------------------------
 (2) ___fleq                                              12     4      8     494
                                             24 COMRAM    12     4      8
                            ___flsub (ARG)
 ---------------------------------------------------------------------------------
 (2) ___fldiv                                             25    17      8    2159
                                             24 COMRAM    25    17      8
                            ___fladd (ARG)
                            ___flsub (ARG)
 ---------------------------------------------------------------------------------
 Estimated maximum stack depth 6
 ---------------------------------------------------------------------------------
 (Depth) Function   	        Calls       Base Space   Used Autos Params    Refs
 ---------------------------------------------------------------------------------
 (9) _HighISR                                              0     0      0       0
 ---------------------------------------------------------------------------------
 Estimated maximum stack depth 9
 ---------------------------------------------------------------------------------

 Call Graph Graphs:

 _main (ROOT)
   _Colour_decider
     ___fladd
     ___fldiv
       ___fladd (ARG)
       ___flsub (ARG)
         ___fladd
     ___fleq
       ___flsub (ARG)
     ___flge
     ___flmul
       ___fladd (ARG)
       ___fldiv (ARG)
       ___flsub (ARG)
     ___flsub
     ___xxtofl
   _I2C_2_Master_Init
   _Interrupts_init
   _color_click_init
     _I2C_2_Master_Init
     _color_writetoaddr
       _I2C_2_Master_Start
         _I2C_2_Master_Idle
       _I2C_2_Master_Stop
         _I2C_2_Master_Idle
       _I2C_2_Master_Write
         _I2C_2_Master_Idle
   _colour_rel
     ___fladd
     ___fldiv
     ___xxtofl
   _initUSART4
   _readColours
     _color_read_Blue
       _I2C_2_Master_Read
         _I2C_2_Master_Idle
       _I2C_2_Master_RepStart
         _I2C_2_Master_Idle
       _I2C_2_Master_Start
       _I2C_2_Master_Stop
       _I2C_2_Master_Write
     _color_read_Green
       _I2C_2_Master_Read
       _I2C_2_Master_RepStart
       _I2C_2_Master_Start
       _I2C_2_Master_Stop
       _I2C_2_Master_Write
     _color_read_Red
       _I2C_2_Master_Read
       _I2C_2_Master_RepStart
       _I2C_2_Master_Start
       _I2C_2_Master_Stop
       _I2C_2_Master_Write
     _color_read_lum
       _I2C_2_Master_Read
       _I2C_2_Master_RepStart
       _I2C_2_Master_Start
       _I2C_2_Master_Stop
       _I2C_2_Master_Write
   _sendStringSerial4
     _sendCharSerial4
   _sprintf
     _vfprintf
       _vfpfcnvrt
         _dtoa
           ___aodiv
           ___aomod
           _abs
             ___aomod (ARG)
           _pad
             _fputc
               _putch
             _fputs
               _fputc
         _fputc

 _HighISR (ROOT)

 Address spaces:
Name               Size   Autos  Total    Cost      Usage
BIGRAM             DE9      0       0      50        0.0%
EEDATA             400      0       0       0        0.0%
BITBANK12          100      0       0      28        0.0%
BANK12             100      0       0      29        0.0%
BITBANK11          100      0       0      26        0.0%
BANK11             100      0       0      27        0.0%
BITBANK10          100      0       0      24        0.0%
BANK10             100      0       0      25        0.0%
BITBANK9           100      0       0      22        0.0%
BANK9              100      0       0      23        0.0%
BITBANK8           100      0       0      20        0.0%
BANK8              100      0       0      21        0.0%
BITBANK7           100      0       0      18        0.0%
BANK7              100      0       0      19        0.0%
BITBANK6           100      0       0      16        0.0%
BANK6              100      0       0      17        0.0%
BITBANK5           100      0       0      14        0.0%
BANK5              100      0       0      15        0.0%
BITBANK4           100      0       0      12        0.0%
BANK4              100      0       0      13        0.0%
BITBANK3           100      0       0      10        0.0%
BANK3              100      0       0      11        0.0%
BITBANK2           100      0       0       8        0.0%
BANK2              100      0       0       9        0.0%
BITBANK1           100      0       0       6        0.0%
BANK1              100      0      88       7       53.1%
BITBANK13           EA      0       0      30        0.0%
BANK13              EA      0       0      31        0.0%
BITBANK0            A0      0       0       4        0.0%
BANK0               A0     86      97       5       94.4%
BITBIGSFRllllhh     8F      0       0      38        0.0%
BITBIGSFRh          78      0       0      32        0.0%
BITCOMRAM           5E      0       0       0        0.0%
COMRAM              5E     58      5E       1      100.0%
BITBIGSFRllllll     36      0       0      42        0.0%
BITBIGSFRllllll     2D      0       0      41        0.0%
BITBIGSFRllllll     2A      0       0      44        0.0%
BITBIGSFRllllll     26      0       0      48        0.0%
BITBIGSFRllllll      F      0       0      46        0.0%
BITBIGSFRllllll      C      0       0      43        0.0%
BITBIGSFRllllll      9      0       0      45        0.0%
BITBIGSFRllllhl      8      0       0      39        0.0%
BITBIGSFRllllll      6      0       0      47        0.0%
BITBIGSFRlllhl       2      0       0      37        0.0%
BITBIGSFRlhl         2      0       0      34        0.0%
BITBIGSFRlllllh      1      0       0      40        0.0%
BITBIGSFRlllhh       1      0       0      36        0.0%
BITBIGSFRllh         1      0       0      35        0.0%
BITBIGSFRlhh         1      0       0      33        0.0%
BIGSFR               0      0       0     200        0.0%
BITSFR_3             0      0       0     200        0.0%
SFR_3                0      0       0     200        0.0%
BITSFR_2             0      0       0     200        0.0%
SFR_2                0      0       0     200        0.0%
BITSFR_1             0      0       0     200        0.0%
SFR_1                0      0       0     200        0.0%
BITSFR               0      0       0     200        0.0%
SFR                  0      0       0     200        0.0%
STACK                0      0       0       2        0.0%
NULL                 0      0       0       0        0.0%
ABS                  0      0     17D      49        0.0%
DATA                 0      0     17D       3        0.0%
CODE                 0      0       0       0        0.0%


Microchip Technology PIC18 Macro Assembler V2.40 build 20220703182018 
Symbol Table                                                                                   Thu Mar 09 10:32:24 2023

               _color_read_Red 3690                   ___fldiv@aexp 0031                   ___fldiv@bexp 0030  
               _color_read_lum 3640                   ___fldiv@sign 0029                _color_read_Blue 3730  
                           l40 397A                             l43 368E                             l52 377E  
                           l37 363E                             l46 36DE                             l55 359A  
                           l49 372E                             l58 2886                             l68 18D4  
             _color_read_Green 36E0                readColours@vals 000C              ??_Interrupts_init 0001  
                          l201 39B0                            l132 3934                            l141 39C6  
                          l150 3898                            l135 395A                            l207 3908  
                          l144 39D0                            l129 3932                            l138 39DA  
                          l147 39BC                            l263 39E0                            l443 2E40  
                          l189 3998                            l198 399C                            l456 2FA4  
                          l911 2558                            l913 23B8                            l922 23FE  
                          l594 31B0                            l924 2476                            l916 237C  
                          l588 3464                            l925 2464                            l950 2050  
                          l599 31F6                            l943 1E5A                            l960 2180  
                          l952 20C8                            l953 20B6                            l857 1AC4  
                          l874 1BDE                            l866 1D94                            l858 1AB2  
                          l947 21BE                            l883 1CAE                            l859 1A78  
                          l884 1C9C                            l991 2BF4                            l984 2B5C  
                          l899 3812                            l987 2CB8                            l998 2C50  
                          _abs 389A                            _pad 3466                            _rel 017C  
                          wreg 000FE8                   ___flmul@aexp 0043                   ___flmul@bexp 0044  
                 ___flmul@sign 003E                   ___flmul@temp 0049                   ___flmul@prod 0045  
              Colour_decider@i 007A                           l1007 35EC                           l1040 291C  
                         l1033 34DE                           l1041 2962                           ?_abs 0013  
                         l1052 2B04                           l1029 3488                           l1038 2914  
                         l1072 38D8                           l3001 2080                           l1065 37CC  
                         l3011 20F2                           l3003 20AE                           l1059 30F2  
                         l1084 33BA                           l1092 3856                           l3021 2168  
                         l3013 211C                           l3101 2BDE                           l1069 38D0  
                         l3023 2184                           l3031 21AA                           l3007 20D8  
                         l3015 2120                           l3111 2C5E                           l3103 2BEA  
                         l2311 2CBA                           l1095 39DE                           l2303 3814  
                         l3033 21AE                           l3025 2194                           l3017 213A  
                         l3009 20E4                           l3121 2CA6                           l3113 2C60  
                         l3105 2C26                           l3201 0F28                           l2321 2CFE  
                         l2313 2CBE                           l2305 3820                           l2401 34AC  
                         l3051 3438                           l3043 33BC                           l3027 21A2  
                         l3019 214E                           l3123 2CA8                           l3115 2C64  
                         l3107 2C32                           l3211 103A                           l3203 0F7A  
                         l2411 3944                           l2331 2D54                           l2323 2D1E  
                         l2315 2CCC                           l2307 3832                           l2403 34CA  
                         l3131 37A8                           l3053 345C                           l3045 33EA  
                         l3061 3122                           l3029 21A4                           l2501 18F2  
                         l3037 37CE                           l3117 2C88                           l3109 2C40  
                         l3301 1656                           l3221 10BE                           l3213 1040  
                         l3205 0FAC                           l3141 35FC                           l2341 2DD6  
                         l2333 2D68                           l2325 2D22                           l2317 2CEC  
                         l2405 389A                           l2309 3836                           l2421 28EC  
                         l2413 2888                           l3133 37C4                           l3055 3462  
                         l3047 33FA                           l3071 3190                           l3063 3132  
                         l2503 1902                           l2511 192C                           l3039 37DE  
                         l3119 2C98                           l3311 16CA                           l3303 1688  
                         l3231 11CC                           l3223 10D2                           l3215 105C  
                         l3207 0FB4                           l3151 362C                           l3143 360C  
                         l2351 2E20                           l2343 2DD8                           l2335 2D76  
                         l2327 2D2E                           l2319 2CF0                           l2407 38B4  
                         l2431 294A                           l2423 2908                           l2415 28A8  
                         l3127 3780                           l3049 3428                           l3073 319E  
                         l3065 3160                           l2601 1AF6                           l2521 195C  
                         l2513 193C                           l2505 1912                           l3081 2B08  
                         l3321 176C                           l3241 13AA                           l3233 1248  
                         l3225 1172                           l3217 10B2                           l3209 1008  
                         l2409 3934                           l3161 3636                           l3153 362E  
                         l3145 3616                           l3137 35EE                           l2345 2DEA  
                         l2337 2D88                           l2329 2D4C                           l2361 2E74  
                         l2441 297A                           l2433 2956                           l2425 2924  
                         l2417 28BC                           l3129 378C                           l3075 31EE  
                         l3067 3170                           l3059 30F4                           l2611 1B32  
                         l2603 1B06                           l2531 199C                           l2523 196A  
                         l2515 1942                           l2507 1922                           l3083 2B18  
                         l3331 17D4                           l3315 16D6                           l3251 141A  
                         l3243 13DC                           l3235 12A4                           l3227 1182  
                         l3163 3638                           l3155 3630                           l3147 3620  
                         l3139 35F2                           l3171 255A                           l2339 2DB6  
                         l2347 2DF0                           l2371 2ECC                           l2363 2E78  
                         l2355 2E42                           l2291 3304                           l2451 2A86  
                         l2443 29FC                           l2435 295E                           l2427 2934  
                         l2419 28CC                           l3077 31F4                           l3069 317E  
                         l2621 1B78                           l2613 1B40                           l2605 1B14  
                         l2541 19D6                           l2533 199E                           l2525 196C  
                         l2517 1954                           l2509 1924                           l3093 2B96  
                         l3085 2B26                           l3333 1806                           l3317 1708  
                         l3261 148A                           l3253 144C                           l3237 1320  
                         l3229 11BA                           l3165 363A                           l3157 3632  
                         l3149 362A                           l3181 27BA                           l3173 2626  
                         l2349 2E00                           l2381 2F4E                           l2373 2EE0  
                         l2365 2E86                           l2357 2E46                           l2293 3316  
                         l2461 2AE4                           l2453 2AA4                           l2445 2A02  
                         l2437 296A                           l2429 293A                           l2701 2FD8  
                         l2631 1BF4                           l2623 1BAC                           l2615 1B42  
                         l2607 1B22                           l2551 19EA                           l2543 19DA  
                         l2527 197C                           l2535 19A6                           l2519 1956  
                         l3095 2B9E                           l3087 2B6C                           l3351 18C0  
                         l3335 1840                           l3343 187E                           l3319 173A  
                         l3271 1534                           l3263 14BC                           l3239 1378  
                         l3191 0EB6                           l2471 39B8                           l3167 363C  
                         l3159 3634                           l3183 27EE                           l3175 265A  
                         l2375 2EEE                           l2383 2F54                           l2367 2EA6  
                         l2359 2E54                           l2295 3320                           l2391 3466  
                         l2455 2ABE                           l2447 2A08                           l2439 2974  
                         l2711 3032                           l2703 2FE6                           l2801 2272  
                         l2641 1C30                           l2633 1C04                           l2625 1BAE  
                         l2617 1B4C                           l2609 1B2E                           l2561 19FE  
                         l2553 19EE                           l2545 19DE                           l2537 19B6  
                         l2529 198C                           l3097 2BAA                           l3089 2B82  
                         l3329 17A2                           l3273 155A                           l3265 14F6  
                         l3249 13E8                           l3193 0EEA                           l3185 0E50  
                         l2465 39D2                           l2473 39C8                           l3177 26EE  
                         l3361 3986                           l2481 385A                           l3169 353E  
                         l2385 2F64                           l2377 2F1C                           l2369 2EC4  
                         l2297 333E                           l2289 32F2                           l2393 3474  
                         l2457 2ACE                           l2449 2A6C                           l2713 3088  
                         l2705 2FEA                           l2721 30CA                           l3441 3204  
                         l2811 22B2                           l2803 2274                           l2651 1C5C  
                         l2643 1C32                           l2627 1BBE                           l2619 1B52  
                         l2571 1A12                           l2563 1A02                           l2555 19F2  
                         l2547 19E2                           l2539 19C8                           l3099 2BDC  
                         l3355 18CC                           l3283 1572                           l3259 1458  
                         l3195 0F1E                           l3187 0E7A                           l2731 391A  
                         l2467 39D6                           l2475 39CC                           l3179 2722  
                         l3363 3988                           l2491 3896                           l2483 385E  
                         l3371 38DA                           l2387 2F84                           l2379 2F3C  
                         l2299 3374                           l2395 3480                           l2459 2AD4  
                         l2707 2FFA                           l3451 321A                           l3443 3208  
                         l3435 31F8                           l2821 22E2                           l2813 22BA  
                         l2805 227C                           l2661 1C94                           l2645 1C40  
                         l2637 1C18                           l2653 1C5E                           l2629 1BCE  
                         l2581 1A70                           l2565 1A06                           l2557 19F6  
                         l2549 19E6                           l2573 1A16                           l3285 15A4  
                         l3189 0E86                           l2733 391C                           l2469 39B4  
                         l3365 3992                           l2485 3866                           l2477 39BE  
                         l2741 3640                           l3373 38DE                           l2397 3494  
                         l2717 30B8                           l2709 3016                           l3453 324C  
                         l3445 320A                           l3437 31FC                           l2831 2320  
                         l2823 22E2                           l2815 22BE                           l2807 228C  
                         l2911 1DB0                           l2671 1D12                           l2647 1C48  
                         l2639 1C22                           l2655 1C6C                           l2591 1AA6  
                         l2583 1A86                           l2575 1A1A                           l2567 1A0A  
                         l2559 19FA                           l2495 18D6                           l3295 1618  
                         l3287 15D6                           l3279 1566                           l2735 391E  
                         l2727 390A                           l3367 3994                           l3359 397C  
                         l2487 386E                           l2479 39C2                           l2743 3686  
                         l3375 38EC                           l2399 34A8                           l3391 35B6  
                         l3455 3268                           l3447 320C                           l3439 3200  
                         l2841 236C                           l2833 2330                           l2809 22A2  
                         l2921 1DE8                           l2913 1DB2                           l2681 1D58  
                         l2665 1CBE                           l2673 1D14                           l2657 1C70  
                         l2649 1C4C                           l2593 1AB0                           l2585 1A92  
                         l2577 1A44                           l2569 1A0E                           l2497 18E2  
                         l2737 3920                           l2729 3914                           l3369 3996  
                         l2489 3894                           l2761 3776                           l2753 36E0  
                         l3377 38F0                           l3393 35BE                           l3457 32AA  
                         l3449 320E                           l2851 23B6                           l2843 237A  
                         l2835 2340                           l2827 22F6                           l2819 22D2  
                         l2771 21CC                           l2931 1E14                           l2923 1DF8  
                         l2915 1DC2                           l2907 1D96                           l2691 1D82  
                         l2683 1D66                           l2675 1D24                           l2667 1CCA  
                         l2659 1C7E                           l2595 1AD2                           l2587 1A96  
                         l2579 1A60                           l2499 18F0                           l3299 1624  
                         l2739 395E                           l2755 3726                           l2747 3690  
                         l3395 35DA                           l3387 359C                           l3459 32DE  
                         l2861 23FC                           l2853 23C8                           l2845 2386  
                         l2837 2348                           l2829 2310                           l2781 220C  
                         l2773 21DA                           l2941 1E6A                           l2933 1E24  
                         l2925 1DFE                           l2917 1DD2                           l2909 1DA2  
                         l2693 1D84                           l2685 1D6C                           l2677 1D34  
                         l2669 1CD8                           l2597 1AE2                           l2589 1AA4  
                         l2749 36D6                           l2765 399C                           l3389 35AE  
                         ?_pad 0011                           l2871 245C                           l2855 23DE  
                         l2863 240E                           l2847 23A4                           l2839 2358  
                         l2791 2232                           l2783 220E                           l2775 21DC  
                         l2951 1EA4                           l2943 1E7A                           l2935 1E34  
                         l2927 1E04                           l2919 1DE2                           l2687 1D6E  
                         l2679 1D54                           l2759 3730                           l2767 39AC  
                         l2881 24CA                           l2865 241C                           l2857 23E4  
                         l2849 23A6                           l2793 2240                           l2777 21EC  
                         l2785 2216                           l2769 21C0                           l2961 1EF6  
                         l2953 1EBA                           l2937 1E44                           l2929 1E12  
                         l2689 1D74                           l2697 2FA6                           l2891 2534  
                         l2875 2486                           l2883 24CE                           l2867 2420  
                         l2859 23EE                           l2795 2242                           l2787 2226  
                         l2779 21FC                           l2971 1F3C                           l2963 1F04  
                         l2955 1EC6                           l2947 1E8E                           l2939 1E4A  
                         l2699 2FCA                           l2893 2538                           l2885 24E8  
                         l2877 2492                           l2869 242E                           l2797 2252  
                         l2789 222C                           l2981 1FAA                           l2973 1F56  
                         l2965 1F10                           l2957 1EDE                           l2949 1E9A  
                         l2895 2546                           l2887 24FE                           l2879 24A0  
                         l2799 2262                           l2991 2040                           l2983 1FD4  
                         l2975 1F66                           l2967 1F20                           l2959 1EEA  
                         l2897 254C                           l2889 2518                           l2993 204E  
                         l2985 200A                           l2977 1F82                           l2969 1F2C  
                         l2899 254E                           l2995 2060                           l2987 2018  
                         l2979 1F8E                           l2997 206E                           l2989 2036  
                         l2999 2072                           STR_1 0E01                           STR_2 0E2D  
                         u2000 2F64                           u2001 2F60                           u2010 3474  
                         u2011 3470                           u2020 34CA                           u2100 2934  
                         u2021 34C6                           u2101 2930                           u2030 38B4  
                         u2110 294A                           u2031 38B0                           u2111 2946  
                         u3000 213A                           u2200 1912                           u2040 3944  
                         u2120 2A86                           u3001 2136                           u2201 190E  
                         u2041 3940                           u2121 2A82                           u3010 2168  
                         u2210 1954                           u2050 395A                           u2130 2AA4  
                         u3011 2164                           u2211 1950                           u2051 3956  
                         u2131 2AA0                           u3100 31EE                           u3020 21A2  
                         u2300 1A86                           u2220 196A                           u2140 2ABE  
                         u2060 28B8                           u3101 31EA                           u3021 219E  
                         u2301 1A82                           u2221 1966                           u2141 2ABA  
                         u2061 28B2                           u3030 33EA                           u2310 1AA4  
                         u2230 197C                           u3110 2B18                           u2150 2ACE  
                         u2070 28BA                           u3031 33E6                           u2311 1AA0  
                         u2231 1978                           u3111 2B14                           u2151 2ACA  
                         u3040 3428                           u2400 1BF4                           u2320 1AC4  
                         u2240 198C                           u3200 2CA6                           u3120 2B26  
                         u2160 3882                           u2080 28CC                   _BAUD4CONbits 000EE9  
                         u3041 3424                           u2401 1BF0                           u2321 1AC0  
                         u2241 1988                           u3201 2CA2                           u3121 2B22  
                         u2161 387A                           u2081 28C8                           u3050 345C  
                         u2410 1C04                           u2330 1AD2                           u2250 19C8  
                         u3130 2B82                           u2090 2908                           u3210 37C4  
                         u3051 3458                           u2411 1C00                           u2331 1ACE  
                         u2251 19C4                           u3131 2B7E                           u2091 2904  
                         u3211 37C0                           u3060 3122                           u2500 1CD8  
                         u2420 1C30                           u2340 1AE2                           u2260 19D6  
                         u2180 18F0                           u3140 2BD8                           u3300 13AA  
                         u3061 311E                           u2501 1CD4                           u2421 1C2C  
                         u2341 1ADE                           u2261 19D2                           u2181 18EC  
                         u3141 2BD4                           u3301 13A6                           u3221 0E80  
                         u3070 3160                           u2510 1D12                           u2430 1C40  
                         u2350 1B14                           u2270 1A44                           u2190 1902  
                         u3150 2C22                           u3310 13DC                           u3230 0F7A  
                         u3071 315C                           u2511 1D0E                           u2431 1C3C  
                         u2351 1B10                           u2271 1A40                           u2191 18FE  
                         u3151 2C1E                           u3311 13D8                           u3231 0F76  
                         u3080 317E                           u2520 1D24                           u2440 1C5C  
                         u2360 1B22                           u2280 1A5C                           u3160 2C40  
                         u3400 15D6                           u3320 141A                           u3240 1008  
                         u2600 39AC                           u3081 317A                           u2521 1D20  
                         u2441 1C58                           u2361 1B1E                           u2281 1A56  
                         u3161 2C3C                           u3401 15D2                           u3321 1416  
                         u3241 1004                           u2601 39A8                           u2610 21DA  
                         u3090 319E                           u2530 1D34                           u2450 1C6C  
                         u2370 1B40                           u2290 1A5E                           u3170 2C50  
                         u3410 1614                           u3330 144C                           u3250 105C  
                         u2178 3884                           u2611 21D6                           u3091 319A  
                         u2531 1D30                           u2451 1C68                           u2371 1B3C  
                         u3171 2C4C                           u3411 1610                           u3331 1448  
                         u3251 1058                           u2700 237A                           u2620 21EC  
                         u2540 1D54                           u2460 1C7E                           u2380 1B78  
                         u3180 2C5E                           u3500 1806                           u3420 1656  
                         u3340 148A                           u3260 10B2                           u2701 2376  
                         u2621 21E8                           u2541 1D50                           u2461 1C7A  
                         u2381 1B74                           u3181 2C5A                           u3501 1802  
                         u3421 1652                           u3341 1486                           u3261 10AE  
                         u1901 2D28                           u2710 23A4                           u2630 21FC  
                         u2550 1D66                           u2470 1C94                           u2390 1BBE  
                         u3190 2C98                           u3510 1840                           u3430 1688  
                         u3350 14BC                           u3270 10D2                           u1910 2D4C  
                         u1830 3304                           u2711 23A0                           u2631 21F8  
                         u2551 1D62                           u2471 1C90                           u2391 1BBA  
                         u3191 2C94                           u3511 183C                           u3431 1684  
                         u3351 14B8                           u3271 10CE                           u1911 2D48  
                         u1831 3300                           u2800 24A0                           u2720 23C8  
                         u2640 2240                           u2560 1D82                           u2480 1CAA  
                         u3520 187A                           u3440 16C6                           u3360 14F6  
                         u3280 1182                           u1920 2D76                           u1840 3316  
                         u3600 324C                           u2801 249C                           u2721 23C4  
                         u2641 223C                           u2561 1D7E                           u2481 1CA6  
                         u3521 1876                           u3441 16C2                           u3361 14F2  
                         u3281 117E                           u1921 2D72                           u1841 3312  
                         u3601 3248                           u2810 24E8                           u2730 23DE  
                         u2650 2252                           u2490 1CBE                           u3530 18BC  
                         u3450 1708                           u3370 1530                           u3290 11CC  
                         u1930 2DB6                           u1850 333E                           u2570 2FCA  
                         u2811 24E4                           u2731 23DA                           u2651 224E  
                         u2491 1CBA                           u3531 18B8                           u3451 1704  
                         u3371 152C                           u3291 11C8                           u1931 2DB2  
                         u1851 333A                           u2571 2FC6                           u2820 2518  
                         u2740 23FC                           u2660 2262                           u2900 1E6A  
                         u3460 173A                           u3380 155A                           u3540 3908  
                         u1940 2E00                           u1860 3374                           u2580 3016  
                         u2821 2514                           u2741 23F8                           u2661 225E  
                         u2901 1E66                           u3461 1736                           u3381 1556  
                         u3541 3904                           u1941 2DFC                           u1861 3370  
                         u2581 3012                           u2830 2546                           u2750 241C  
                         u2670 22A2                           u2910 1E7A                           u3470 176C  
                         u3390 15A4                           u1950 2E54                           u1870 3856  
                         u2590 3032                           u2831 2542                           u2751 2418  
                         u2671 229E                           u2911 1E76                           u3471 1768  
                         u3391 15A0                           u1951 2E50                           u1871 3852  
                         u2591 302E                           u2760 242E                           u2680 22E2  
                         u2920 1FF4                           u2840 1DB0                           u3480 179E  
                         u1880 2CCC                           u1960 2E86                           u2761 242A  
                         u2681 22DE                           u2841 1DAC                           u3481 179A  
                         u3617 3602                           u1881 2CC8                           u1961 2E82  
                         u2770 245C                           u2690 2358                           u2930 204E  
                         u2850 1DC2                           u3490 17D4                           u1890 2CFE  
                         u1970 2EC4                           u2771 2458                           u2691 2354  
                         u2931 204A                           u2851 1DBE                           u3491 17D0  
                         u1891 2CFA                           u1971 2EC0                           u2780 2472  
                         u2940 206E                           u2860 1DD2                           u1980 2EEE  
                         u2781 246E                           u2941 206A                           u2925 1FEA  
                         u2861 1DCE                           u1981 2EEA                           u2790 2486  
                         u2950 2080                           u2870 1E12                           u1990 2F1C  
                         u2791 2482                           u2951 207C                           u2871 1E0E  
                         u1991 2F18                           u2960 20AE                           u2880 1E24  
                         u2961 20AA                           u2881 1E20                           u2970 20C4  
                         u2890 1E34                           u2971 20C0                           u2891 1E30  
                         u2980 20D8                           u2981 20D4                           u2990 20F2  
                         u2991 20EE                           abs@a 0013                           _dbuf 015C  
                         _main 31F8                           _dtoa 2888                           _prec 00E8  
                         _vals 00ED                           pad@i 0018                           pad@p 0015  
                         fsr1h 000FE2                           fsr2h 000FDA                           indf2 000FDF  
                         fsr1l 000FE1                           pad@w 001A                           fsr2l 000FD9  
                         btemp 005F                           prodh 000FF4                           prodl 000FF3  
                         start 000E                ___fldiv@new_exp 002A         __end_of_color_read_Red 36E0  
              __end_of_HighISR 000E         __end_of_color_read_lum 3690                   ___param_bank 000000  
                        ??_abs 0015                          ??_pad 0017                   ?_readColours 000C  
              __end_of___aodiv 2E42                __end_of___fladd 1D96                          ?_main 0001  
                        ?_dtoa 001C                __end_of___aomod 2FA6                __end_of___fldiv 255A  
              __end_of___flmul 21C0                __end_of___flsub 3814                    colour_rel@B 004A  
                  colour_rel@G 0046                    colour_rel@L 0036                    colour_rel@R 0042  
                        i2l268 000A                   vfpfcnvrt@fmt 0041        __end_of_sendCharSerial4 39B2  
   __end_of_I2C_2_Master_Start 39DC     __end_of_I2C_2_Master_Write 39BE                          _flags 00EC  
                        _fputc 32F2                          _fputs 3814                          pad@fp 0011  
                        _width 00E6                          _putch 39DE                          dtoa@d 001E  
                        dtoa@i 003C                          dtoa@n 0034                          dtoa@p 0030  
                        dtoa@s 003E                          dtoa@w 0032                          tablat 000FF5  
                        plusw2 000FDB               ??_Colour_decider 004F                          ttemp5 0060  
                        ttemp6 0063                          ttemp7 0067                          status 000FD8  
                        wtemp8 0060                __end_of_sprintf 35EE        __end_of_color_read_Blue 3780  
        _I2C_2_Master_RepStart 39BE                ?_color_read_Red 0005                ?_color_read_lum 0005  
              __initialization 34E0                   __end_of_main 32F2                   __end_of_dtoa 2B06  
              _colour_rel$1738 003A                _colour_rel$1739 003E                         ??_main 0059  
                       ??_dtoa 0026                  __activetblptr 000001              Colour_decider@Hue 007C  
            Colour_decider@rel 004D                         ?_fputc 0001                         ?_fputs 000A  
                       ?_putch 0001                         _RC0PPS 000E62                         _RC4REG 000EE3  
                       _RD5PPS 000E6F                         _RD6PPS 000E70                      ??_HighISR 0001  
     __end_of_color_click_init 3640                         _RX4PPS 000E15                         _TX4REG 000EE4  
             __end_of___xxtofl 2CBA                   vfprintf@cfmt 0057                         ___flge 30F4  
                       ___fleq 33BC                      ??___aodiv 0011                      ??___fladd 0009  
                    ??___aomod 0011                      ??___fldiv 0021                      ??___flmul 003A  
                    ??___flsub 0019                         clear_0 3510                         clear_1 351C  
                       isa$std 000001                         pad@buf 0013                         dtoa@fp 001C  
                       fputc@c 0001                         fputs@c 000E                         fputs@i 000F  
                 __pdataCOMRAM 005E                         fputs@s 000A                   __mediumconst 0000  
                       tblptrh 000FF7                         tblptrl 000FF6                         tblptru 000FF8  
             ?_sendCharSerial4 0001                         putch@c 0001               __end_of_vfprintf 37CE  
                    ??_sprintf 0059                     ___flge@ff1 0001                     ___flge@ff2 0005  
                 ___xxtofl@arg 000B                   ___xxtofl@exp 000A                   ___xxtofl@val 0001  
                   ___fleq@ff1 0019                     ___fleq@ff2 001D                     __accesstop 0060  
      __end_of__initialization 352C       __end_of_color_read_Green 3730         ?_I2C_2_Master_RepStart 0001  
                ___rparam_used 000001               ?_color_read_Blue 0005                _Interrupts_init 39E0  
               __pcstackCOMRAM 0001                   __pidataBANK0 39DC                  __end_of_fputc 33BC  
                __end_of_fputs 3858                  __end_of_putch 39E0                        ??_fputc 0005  
                      ??_fputs 000E           Colour_decider@F14270 0150                        ??_putch 0001  
                   __pbssBANK0 00E6                     __pbssBANK1 0100              _color_writetoaddr 395C  
           Colour_decider@Cmax 0072             Colour_decider@Cmin 0076           Colour_decider@Cmax_i 0064  
                      ?___flge 0001                        ?___fleq 0019             ?_color_writetoaddr 0003  
           Colour_decider@vals 004B            ??_color_writetoaddr 0004                  colour_rel@rel 0034  
                    ?___xxtofl 0001                        _SP4BRGH 000EE6                        _SP4BRGL 000EE5  
                      _SSP2ADD 000ED6                        _SSP2BUF 000ED5                     _colour_rel 255A  
      __end_of_Interrupts_init 39E2         color_writetoaddr@value 0003               ??_color_read_Red 0007  
                      _HighISR 0008               ??_color_read_lum 0007      __end_of_color_writetoaddr 397C  
           _I2C_2_Master_Start 39D2                     _initUSART4 397C             _I2C_2_Master_Write 39B2  
                      __Hparam 0000                        __Lparam 0000              color_read_Red@tmp 000A  
      sendStringSerial4@string 0002                        ___aodiv 2CBA                        ___fladd 18D6  
                      ___aomod 2E42                        ___fldiv 21C0                        ___flmul 1D96  
                      ___flsub 37CE            ?_I2C_2_Master_Start 0001            ?_I2C_2_Master_Write 0001  
                    ?_vfprintf 0051                   __psmallconst 0E00                        __pcinit 34E0  
                      __ramtop 0E00                        __ptext0 31F8                        __ptext1 359C  
                      __ptext2 3780                        __ptext3 2FA6                        __ptext4 2888  
                      __ptext5 3466                        __ptext6 3814                        __ptext7 32F2  
                      __ptext8 39DE                        __ptext9 389A                     ??___xxtofl 0005  
                _RxBufWriteCnt 005C                        _pointer 005D              color_read_lum@tmp 000A  
                      main@buf 0080                        _sprintf 359C           ??_I2C_2_Master_Start 0002  
         ??_I2C_2_Master_Write 0002           end_of_initialization 352C                        fputc@fp 0003  
                      fputs@fp 000C              ?_color_click_init 0001             ??_color_click_init 0005  
            __end_of_vfpfcnvrt 30F4                        postdec2 000FDD                        postinc0 000FEE  
                      postinc1 000FE6                        postinc2 000FDE               vfpfcnvrt@convarg 0047  
                   ??_vfprintf 0057                    ___fladd@grs 0010                  ___xxtofl@sign 0009  
                    _TRISAbits 000F81                      _TRISDbits 000F84                      _TRISFbits 000F86  
                    _TRISGbits 000F87                    ___fldiv@grs 002C                    ___fldiv@rem 0025  
     color_writetoaddr@address 0004        ??_I2C_2_Master_RepStart 0002                    ?_colour_rel 0032  
             ?_Interrupts_init 0001                    ___flmul@grs 003F                     main@colour 00E4  
                 _EUSART4RXbuf 013C                   _EUSART4TXbuf 0100              ?_color_read_Green 0005  
                  ?_initUSART4 0001      sendCharSerial4@charToSend 0001             ??_color_read_Green 0007  
               __end_of___flge 31F8                 __end_of___fleq 3466                    vfpfcnvrt@ap 0043  
                  vfpfcnvrt@cp 004F                    vfpfcnvrt@fp 003F                  __pidataCOMRAM 39E2  
          start_initialization 34E0                    __end_of_abs 38DA                    __end_of_pad 34E0  
                _TxBufWriteCnt 005A            color_read_Green@tmp 000A                    vfprintf@fmt 0053  
                     ??___flge 0009                       ??___fleq 0021                  ??_readColours 000E  
                  __pdataBANK0 00F5                      ___fladd@a 0005                      ___fladd@b 0001  
                    ___fldiv@a 001D                      ___fldiv@b 0019                      ___flmul@a 0036  
                    ___flmul@b 0032                    __pbssCOMRAM 0059                      ___flsub@a 0015  
                    ___flsub@b 0011                  __pcstackBANK0 0060               ___aodiv@dividend 0001  
                     ?_HighISR 0001          Colour_decider@RGB_col 0066                      _dtoa$1443 002E  
                    __pintcode 0008                       ?___aodiv 0001                       ?___fladd 0001  
                     ?___aomod 0001                       ?___fldiv 0019               ___aodiv@quotient 0013  
                     ?___flmul 0032                       ?___flsub 0011            _Colour_decider$1740 0060  
         I2C_2_Master_Read@ack 0003           I2C_2_Master_Read@tmp 0004                    __smallconst 0E00  
          __end_of_readColours 359C              _I2C_2_Master_Idle 3934              _I2C_2_Master_Init 390A  
            _I2C_2_Master_Read 3858              _I2C_2_Master_Stop 39C8                  _low_threshold 00EA  
                 _RxBufReadCnt 005B             ?_I2C_2_Master_Idle 0001             ?_I2C_2_Master_Init 0001  
           ?_I2C_2_Master_Read 0001             ?_I2C_2_Master_Stop 0001                       ?_sprintf 0060  
               colour_rel@vals 0032              _sendStringSerial4 38DA            ??_I2C_2_Master_Idle 0001  
          ??_I2C_2_Master_Init 0001            ??_I2C_2_Master_Read 0002                       _LATAbits 000F79  
          ??_I2C_2_Master_Stop 0002                       _LATDbits 000F7C                       _LATFbits 000F7E  
                     _LATGbits 000F7F             ?_sendStringSerial4 0002                       _PIE4bits 000E2D  
                     _PIR4bits 000E37              ??_sendCharSerial4 0001                       _SSP2CON2 000EDA  
               _Colour_decider 0E50            ??_sendStringSerial4 0004                       _SSP2STAT 000ED8  
                    _vfpfcnvrt 2FA6      __end_of_I2C_2_Master_Idle 395C      __end_of_I2C_2_Master_Init 3934  
    __end_of_I2C_2_Master_Read 389A      __end_of_I2C_2_Master_Stop 39D2                       _DataFlag 005E  
  I2C_2_Master_Write@data_byte 0002              ??_color_read_Blue 0007                   _TxBufReadCnt 0059  
    __end_of_sendStringSerial4 390A                   ??_colour_rel 0036  __end_of_I2C_2_Master_RepStart 39C8  
           color_read_Blue@tmp 000A                   ??_initUSART4 0001                       __Hrparam 0000  
       __end_of_Colour_decider 18D6                     vfprintf@ap 0055                       __Lrparam 0000  
                   vfprintf@fp 0051                   __Lsmallconst 0E00                    _readColours 353E  
                   ?_vfpfcnvrt 003F                ___aodiv@divisor 0009                ___aodiv@counter 0011  
           __end_of_colour_rel 2888                     _ANSELDbits 000EA7                     sprintf@fmt 0062  
                     ___xxtofl 2B06             __end_of_initUSART4 399A                       __ptext10 2E42  
                     __ptext11 2CBA                       __ptext20 3858                       __ptext12 38DA  
                     __ptext21 397C                       __ptext13 399A                       __ptext30 39E0  
                     __ptext22 255A                       __ptext14 353E                       __ptext31 0E50  
                     __ptext23 35EE                       __ptext15 3640                       __ptext32 2B06  
                     __ptext24 395C                       __ptext16 3690                       __ptext33 37CE  
                     __ptext25 39B2                       __ptext17 36E0                       __ptext34 18D6  
                     __ptext26 39C8                       __ptext18 3730                       __ptext35 1D96  
                     __ptext27 39D2                       __ptext19 39BE                       __ptext36 30F4  
                     __ptext28 3934                       __ptext37 33BC                       __ptext29 390A  
                     __ptext38 21C0                   _SSP2CON1bits 000ED9                   _SSP2CON2bits 000EDA  
              ?_Colour_decider 004B                       isa$xinst 000000                     _RC4STAbits 000EE7  
                     int$flags 005F                       _vfprintf 3780               ___aomod@dividend 0001  
                     intlevel2 0000                      sprintf@ap 006E                 _high_threshold 00F5  
              ___aomod@divisor 0009                    ??_vfpfcnvrt 0045                ___aomod@counter 0011  
             _color_click_init 35EE                       sprintf@f 0070                       sprintf@s 0060  
                   _SSP2DATPPS 000E1D                     _SSP2CLKPPS 000E1C                  ___fladd@signs 000D  
                   _TX4STAbits 000EE8                   ___aodiv@sign 0012                _sendCharSerial4 399A  
                 ___fladd@aexp 000E                   ___fladd@bexp 000F                   ___aomod@sign 0012  
